

Microchip MPLAB XC8 Assembler V2.30 build 20200825195618 
                                                                                               Thu Jan 14 09:35:03 2021

Microchip MPLAB XC8 C Compiler v2.30 (Free license) build 20200825195618 Og1 
     1                           	processor	18F4520
     2                           	fnconf	rparam,??,?,0
     3                           	pagewidth 120
     4                           	opt	flic
     5                           	psect	mediumconst,global,reloc=2,class=MEDIUMCONST,delta=1,noexec
     6                           	psect	cinit,global,reloc=2,class=CODE,delta=1
     7                           	psect	bssCOMRAM,global,class=COMRAM,space=1,delta=1,lowdata,noexec
     8                           	psect	cstackCOMRAM,global,class=COMRAM,space=1,delta=1,lowdata,noexec
     9                           	psect	text0,global,reloc=2,class=CODE,delta=1
    10                           	psect	text1,global,reloc=2,class=CODE,delta=1,group=2
    11                           	psect	text2,global,reloc=2,class=CODE,delta=1,group=2
    12                           	psect	text3,global,reloc=2,class=CODE,delta=1
    13                           	psect	text4,global,reloc=2,class=CODE,delta=1
    14                           	psect	text5,global,reloc=2,class=CODE,delta=1
    15                           	psect	text6,global,reloc=2,class=CODE,delta=1
    16                           	psect	text7,global,reloc=2,class=CODE,delta=1
    17                           	psect	text8,global,reloc=2,class=CODE,delta=1
    18                           	psect	text9,global,reloc=2,class=CODE,delta=1
    19                           	psect	text10,global,reloc=2,class=CODE,delta=1
    20                           	psect	text11,global,reloc=2,class=CODE,delta=1
    21                           	psect	text12,global,reloc=2,class=CODE,delta=1
    22                           	psect	text13,global,reloc=2,class=CODE,delta=1
    23                           	psect	text14,global,reloc=2,class=CODE,delta=1
    24                           	psect	intcodelo,global,reloc=2,class=CODE,delta=1
    25                           	psect	text16,global,reloc=2,class=CODE,delta=1
    26                           	psect	text17,global,reloc=2,class=CODE,delta=1
    27                           	psect	text18,global,reloc=2,class=CODE,delta=1,group=1
    28                           	psect	intcode,global,reloc=2,class=CODE,delta=1
    29                           	psect	intcode_body,global,reloc=2,class=CODE,delta=1
    30                           	psect	intsave_regs,global,class=BIGRAM,space=1,delta=1,noexec
    31                           	psect	rparam,global,class=COMRAM,space=1,delta=1,noexec
    32                           	psect	temp,global,ovrld,common,class=COMRAM,space=1,delta=1
    33                           	psect	idloc,global,abs,ovrld,class=IDLOC,space=5,delta=1,noexec
    34                           	psect	config,global,abs,ovrld,class=CONFIG,space=4,delta=1,noexec
    35  0000                     
    36                           ; Version 2.30
    37                           ; Generated 26/08/2020 GMT
    38                           ; 
    39                           ; Copyright © 2020, Microchip Technology Inc. and its subsidiaries ("Microchip")
    40                           ; All rights reserved.
    41                           ; 
    42                           ; This software is developed by Microchip Technology Inc. and its subsidiaries ("Microch
      +                          ip").
    43                           ; 
    44                           ; Redistribution and use in source and binary forms, with or without modification, are
    45                           ; permitted provided that the following conditions are met:
    46                           ; 
    47                           ;     1. Redistributions of source code must retain the above copyright notice, this lis
      +                          t of
    48                           ;        conditions and the following disclaimer.
    49                           ; 
    50                           ;     2. Redistributions in binary form must reproduce the above copyright notice, this 
      +                          list
    51                           ;        of conditions and the following disclaimer in the documentation and/or other
    52                           ;        materials provided with the distribution. Publication is not required when
    53                           ;        this file is used in an embedded application.
    54                           ; 
    55                           ;     3. Microchip's name may not be used to endorse or promote products derived from th
      +                          is
    56                           ;        software without specific prior written permission.
    57                           ; 
    58                           ; THIS SOFTWARE IS PROVIDED BY MICROCHIP "AS IS" AND ANY EXPRESS OR IMPLIED WARRANTIES,
    59                           ; INCLUDING, BUT NOT LIMITED TO, THE IMPLIED WARRANTIES OF MERCHANTABILITY AND FITNESS F
      +                          OR
    60                           ; PURPOSE ARE DISCLAIMED.  IN NO EVENT SHALL MICROCHIP BE LIABLE FOR ANY DIRECT, INDIREC
      +                          T,
    61                           ; INCIDENTAL, SPECIAL, EXEMPLARY, OR CONSEQUENTIAL DAMAGES (INCLUDING BUT NOT LIMITED TO
    62                           ; PROCUREMENT OF SUBSTITUTE GOODS OR SERVICES; LOSS OF USE, DATA OR PROFITS; OR BUSINESS
    63                           ; INTERRUPTION) HOWSOEVER CAUSED AND ON ANY THEORY OF LIABILITY, WHETHER IN CONTRACT, ST
      +                          RICT
    64                           ; LIABILITY, OR TORT (INCLUDING NEGLIGENCE OR OTHERWISE) ARISING IN ANY WAY OUT OF THE U
      +                          SE OF
    65                           ; THIS SOFTWARE, EVEN IF ADVISED OF THE POSSIBILITY OF SUCH DAMAGE.
    66                           ; 
    67                           ; 
    68                           ; Code-generator required, PIC18F4520 Definitions
    69                           ; 
    70                           ; SFR Addresses
    71  0000                     _PORTD	set	3971
    72  0000                     _PORTC	set	3970
    73  0000                     _TRISE	set	3990
    74  0000                     _TRISC	set	3988
    75  0000                     _TRISD	set	3989
    76  0000                     _PORTEbits	set	3972
    77  0000                     _PORTCbits	set	3970
    78  0000                     _TRISA	set	3986
    79  0000                     _TRISCbits	set	3988
    80  0000                     _RC2	set	31762
    81  0000                     _TMR3	set	4018
    82  0000                     _ADCON1bits	set	4033
    83  0000                     _ADCON0bits	set	4034
    84  0000                     _ADRESL	set	4035
    85  0000                     _ADRESH	set	4036
    86  0000                     _ADCON2bits	set	4032
    87  0000                     _ADCON1	set	4033
    88  0000                     _CCP1CON	set	4029
    89  0000                     _RCONbits	set	4048
    90  0000                     _RCREG	set	4014
    91  0000                     _TXREG	set	4013
    92  0000                     _IPR1bits	set	3999
    93  0000                     _PIE1bits	set	3997
    94  0000                     _PIR1bits	set	3998
    95  0000                     _RCSTAbits	set	4011
    96  0000                     _SPBRG	set	4015
    97  0000                     _BAUDCONbits	set	4024
    98  0000                     _TXSTAbits	set	4012
    99  0000                     _ADFM	set	32263
   100  0000                     _CREN	set	32092
   101  0000                     _RCIF	set	31989
   102  0000                     _IRCF0	set	32412
   103  0000                     _IRCF1	set	32413
   104  0000                     _IRCF2	set	32414
   105  0000                     _INTCONbits	set	4082
   106                           
   107                           	psect	mediumconst
   108  007C58                     __pmediumconst:
   109                           	callstack 0
   110  007C58  00                 	db	0
   111  007C59                     STR_12:
   112  007C59  62                 	db	98	;'b'
   113  007C5A  75                 	db	117	;'u'
   114  007C5B  74                 	db	116	;'t'
   115  007C5C  20                 	db	32
   116  007C5D  74                 	db	116	;'t'
   117  007C5E  68                 	db	104	;'h'
   118  007C5F  65                 	db	101	;'e'
   119  007C60  20                 	db	32
   120  007C61  73                 	db	115	;'s'
   121  007C62  61                 	db	97	;'a'
   122  007C63  6C                 	db	108	;'l'
   123  007C64  65                 	db	101	;'e'
   124  007C65  73                 	db	115	;'s'
   125  007C66  70                 	db	112	;'p'
   126  007C67  65                 	db	101	;'e'
   127  007C68  72                 	db	114	;'r'
   128  007C69  73                 	db	115	;'s'
   129  007C6A  6F                 	db	111	;'o'
   130  007C6B  6E                 	db	110	;'n'
   131  007C6C  20                 	db	32
   132  007C6D  74                 	db	116	;'t'
   133  007C6E  6F                 	db	111	;'o'
   134  007C6F  6C                 	db	108	;'l'
   135  007C70  64                 	db	100	;'d'
   136  007C71  20                 	db	32
   137  007C72  68                 	db	104	;'h'
   138  007C73  65                 	db	101	;'e'
   139  007C74  72                 	db	114	;'r'
   140  007C75  20                 	db	32
   141  007C76  74                 	db	116	;'t'
   142  007C77  68                 	db	104	;'h'
   143  007C78  61                 	db	97	;'a'
   144  007C79  74                 	db	116	;'t'
   145  007C7A  20                 	db	32
   146  007C7B  73                 	db	115	;'s'
   147  007C7C  68                 	db	104	;'h'
   148  007C7D  65                 	db	101	;'e'
   149  007C7E  20                 	db	32
   150  007C7F  77                 	db	119	;'w'
   151  007C80  61                 	db	97	;'a'
   152  007C81  73                 	db	115	;'s'
   153  007C82  20                 	db	32
   154  007C83  74                 	db	116	;'t'
   155  007C84  68                 	db	104	;'h'
   156  007C85  65                 	db	101	;'e'
   157  007C86  20                 	db	32
   158  007C87  31                 	db	49	;'1'
   159  007C88  30                 	db	48	;'0'
   160  007C89  31                 	db	49	;'1'
   161  007C8A  73                 	db	115	;'s'
   162  007C8B  74                 	db	116	;'t'
   163  007C8C  20                 	db	32
   164  007C8D  70                 	db	112	;'p'
   165  007C8E  65                 	db	101	;'e'
   166  007C8F  72                 	db	114	;'r'
   167  007C90  73                 	db	115	;'s'
   168  007C91  6F                 	db	111	;'o'
   169  007C92  6E                 	db	110	;'n'
   170  007C93  20                 	db	32
   171  007C94  74                 	db	116	;'t'
   172  007C95  6F                 	db	111	;'o'
   173  007C96  20                 	db	32
   174  007C97  73                 	db	115	;'s'
   175  007C98  70                 	db	112	;'p'
   176  007C99  6C                 	db	108	;'l'
   177  007C9A  69                 	db	105	;'i'
   178  007C9B  74                 	db	116	;'t'
   179  007C9C  20                 	db	32
   180  007C9D  74                 	db	116	;'t'
   181  007C9E  68                 	db	104	;'h'
   182  007C9F  65                 	db	101	;'e'
   183  007CA0  20                 	db	32
   184  007CA1  64                 	db	100	;'d'
   185  007CA2  72                 	db	114	;'r'
   186  007CA3  69                 	db	105	;'i'
   187  007CA4  6E                 	db	110	;'n'
   188  007CA5  6B                 	db	107	;'k'
   189  007CA6  20                 	db	32
   190  007CA7  68                 	db	104	;'h'
   191  007CA8  65                 	db	101	;'e'
   192  007CA9  72                 	db	114	;'r'
   193  007CAA  65                 	db	101	;'e'
   194  007CAB  2C                 	db	44
   195  007CAC  20                 	db	32
   196  007CAD  00                 	db	0
   197  007CAE                     STR_5:
   198  007CAE  74                 	db	116	;'t'
   199  007CAF  68                 	db	104	;'h'
   200  007CB0  65                 	db	101	;'e'
   201  007CB1  6E                 	db	110	;'n'
   202  007CB2  20                 	db	32
   203  007CB3  73                 	db	115	;'s'
   204  007CB4  68                 	db	104	;'h'
   205  007CB5  65                 	db	101	;'e'
   206  007CB6  20                 	db	32
   207  007CB7  66                 	db	102	;'f'
   208  007CB8  65                 	db	101	;'e'
   209  007CB9  6C                 	db	108	;'l'
   210  007CBA  74                 	db	116	;'t'
   211  007CBB  20                 	db	32
   212  007CBC  74                 	db	116	;'t'
   213  007CBD  68                 	db	104	;'h'
   214  007CBE  69                 	db	105	;'i'
   215  007CBF  72                 	db	114	;'r'
   216  007CC0  73                 	db	115	;'s'
   217  007CC1  74                 	db	116	;'t'
   218  007CC2  79                 	db	121	;'y'
   219  007CC3  2C                 	db	44
   220  007CC4  20                 	db	32
   221  007CC5  73                 	db	115	;'s'
   222  007CC6  6F                 	db	111	;'o'
   223  007CC7  20                 	db	32
   224  007CC8  73                 	db	115	;'s'
   225  007CC9  68                 	db	104	;'h'
   226  007CCA  65                 	db	101	;'e'
   227  007CCB  20                 	db	32
   228  007CCC  64                 	db	100	;'d'
   229  007CCD  65                 	db	101	;'e'
   230  007CCE  63                 	db	99	;'c'
   231  007CCF  69                 	db	105	;'i'
   232  007CD0  64                 	db	100	;'d'
   233  007CD1  65                 	db	101	;'e'
   234  007CD2  64                 	db	100	;'d'
   235  007CD3  20                 	db	32
   236  007CD4  74                 	db	116	;'t'
   237  007CD5  6F                 	db	111	;'o'
   238  007CD6  20                 	db	32
   239  007CD7  62                 	db	98	;'b'
   240  007CD8  75                 	db	117	;'u'
   241  007CD9  79                 	db	121	;'y'
   242  007CDA  20                 	db	32
   243  007CDB  61                 	db	97	;'a'
   244  007CDC  20                 	db	32
   245  007CDD  62                 	db	98	;'b'
   246  007CDE  75                 	db	117	;'u'
   247  007CDF  62                 	db	98	;'b'
   248  007CE0  62                 	db	98	;'b'
   249  007CE1  6C                 	db	108	;'l'
   250  007CE2  65                 	db	101	;'e'
   251  007CE3  20                 	db	32
   252  007CE4  74                 	db	116	;'t'
   253  007CE5  65                 	db	101	;'e'
   254  007CE6  61                 	db	97	;'a'
   255  007CE7  2C                 	db	44
   256  007CE8  20                 	db	32
   257  007CE9  00                 	db	0
   258  007CEA                     STR_8:
   259  007CEA  74                 	db	116	;'t'
   260  007CEB  68                 	db	104	;'h'
   261  007CEC  61                 	db	97	;'a'
   262  007CED  74                 	db	116	;'t'
   263  007CEE  20                 	db	32
   264  007CEF  61                 	db	97	;'a'
   265  007CF0  6C                 	db	108	;'l'
   266  007CF1  6C                 	db	108	;'l'
   267  007CF2  20                 	db	32
   268  007CF3  6F                 	db	111	;'o'
   269  007CF4  66                 	db	102	;'f'
   270  007CF5  20                 	db	32
   271  007CF6  61                 	db	97	;'a'
   272  007CF7  20                 	db	32
   273  007CF8  73                 	db	115	;'s'
   274  007CF9  75                 	db	117	;'u'
   275  007CFA  64                 	db	100	;'d'
   276  007CFB  64                 	db	100	;'d'
   277  007CFC  65                 	db	101	;'e'
   278  007CFD  6E                 	db	110	;'n'
   279  007CFE  20                 	db	32
   280  007CFF  73                 	db	115	;'s'
   281  007D00  68                 	db	104	;'h'
   282  007D01  65                 	db	101	;'e'
   283  007D02  20                 	db	32
   284  007D03  66                 	db	102	;'f'
   285  007D04  61                 	db	97	;'a'
   286  007D05  6C                 	db	108	;'l'
   287  007D06  6C                 	db	108	;'l'
   288  007D07  20                 	db	32
   289  007D08  64                 	db	100	;'d'
   290  007D09  6F                 	db	111	;'o'
   291  007D0A  77                 	db	119	;'w'
   292  007D0B  6E                 	db	110	;'n'
   293  007D0C  20                 	db	32
   294  007D0D  00                 	db	0
   295  007D0E                     STR_13:
   296  007D0E  73                 	db	115	;'s'
   297  007D0F  6F                 	db	111	;'o'
   298  007D10  20                 	db	32
   299  007D11  73                 	db	115	;'s'
   300  007D12  68                 	db	104	;'h'
   301  007D13  65                 	db	101	;'e'
   302  007D14  20                 	db	32
   303  007D15  67                 	db	103	;'g'
   304  007D16  6F                 	db	111	;'o'
   305  007D17  74                 	db	116	;'t'
   306  007D18  20                 	db	32
   307  007D19  61                 	db	97	;'a'
   308  007D1A  20                 	db	32
   309  007D1B  62                 	db	98	;'b'
   310  007D1C  72                 	db	114	;'r'
   311  007D1D  61                 	db	97	;'a'
   312  007D1E  6E                 	db	110	;'n'
   313  007D1F  64                 	db	100	;'d'
   314  007D20  20                 	db	32
   315  007D21  6E                 	db	110	;'n'
   316  007D22  65                 	db	101	;'e'
   317  007D23  77                 	db	119	;'w'
   318  007D24  20                 	db	32
   319  007D25  64                 	db	100	;'d'
   320  007D26  72                 	db	114	;'r'
   321  007D27  69                 	db	105	;'i'
   322  007D28  6E                 	db	110	;'n'
   323  007D29  6B                 	db	107	;'k'
   324  007D2A  2E                 	db	46
   325  007D2B  20                 	db	32
   326  007D2C  3E                 	db	62	;'>'
   327  007D2D  20                 	db	32
   328  007D2E  3C                 	db	60	;'<'
   329  007D2F  20                 	db	32
   330  007D30  00                 	db	0
   331  007D31                     STR_9:
   332  007D31  61                 	db	97	;'a'
   333  007D32  74                 	db	116	;'t'
   334  007D33  20                 	db	32
   335  007D34  74                 	db	116	;'t'
   336  007D35  68                 	db	104	;'h'
   337  007D36  65                 	db	101	;'e'
   338  007D37  20                 	db	32
   339  007D38  73                 	db	115	;'s'
   340  007D39  61                 	db	97	;'a'
   341  007D3A  6D                 	db	109	;'m'
   342  007D3B  65                 	db	101	;'e'
   343  007D3C  20                 	db	32
   344  007D3D  74                 	db	116	;'t'
   345  007D3E  69                 	db	105	;'i'
   346  007D3F  6D                 	db	109	;'m'
   347  007D40  65                 	db	101	;'e'
   348  007D41  20                 	db	32
   349  007D42  74                 	db	116	;'t'
   350  007D43  68                 	db	104	;'h'
   351  007D44  65                 	db	101	;'e'
   352  007D45  20                 	db	32
   353  007D46  64                 	db	100	;'d'
   354  007D47  72                 	db	114	;'r'
   355  007D48  69                 	db	105	;'i'
   356  007D49  6E                 	db	110	;'n'
   357  007D4A  6B                 	db	107	;'k'
   358  007D4B  20                 	db	32
   359  007D4C  00                 	db	0
   360  007D4D                     STR_6:
   361  007D4D  61                 	db	97	;'a'
   362  007D4E  66                 	db	102	;'f'
   363  007D4F  74                 	db	116	;'t'
   364  007D50  65                 	db	101	;'e'
   365  007D51  72                 	db	114	;'r'
   366  007D52  20                 	db	32
   367  007D53  73                 	db	115	;'s'
   368  007D54  68                 	db	104	;'h'
   369  007D55  65                 	db	101	;'e'
   370  007D56  20                 	db	32
   371  007D57  67                 	db	103	;'g'
   372  007D58  6F                 	db	111	;'o'
   373  007D59  74                 	db	116	;'t'
   374  007D5A  20                 	db	32
   375  007D5B  74                 	db	116	;'t'
   376  007D5C  68                 	db	104	;'h'
   377  007D5D  65                 	db	101	;'e'
   378  007D5E  20                 	db	32
   379  007D5F  64                 	db	100	;'d'
   380  007D60  72                 	db	114	;'r'
   381  007D61  69                 	db	105	;'i'
   382  007D62  6E                 	db	110	;'n'
   383  007D63  6B                 	db	107	;'k'
   384  007D64  2C                 	db	44
   385  007D65  20                 	db	32
   386  007D66  00                 	db	0
   387  007D67                     STR_7:
   388  007D67  73                 	db	115	;'s'
   389  007D68  68                 	db	104	;'h'
   390  007D69  65                 	db	101	;'e'
   391  007D6A  20                 	db	32
   392  007D6B  77                 	db	119	;'w'
   393  007D6C  61                 	db	97	;'a'
   394  007D6D  73                 	db	115	;'s'
   395  007D6E  20                 	db	32
   396  007D6F  74                 	db	116	;'t'
   397  007D70  6F                 	db	111	;'o'
   398  007D71  6F                 	db	111	;'o'
   399  007D72  20                 	db	32
   400  007D73  65                 	db	101	;'e'
   401  007D74  78                 	db	120	;'x'
   402  007D75  63                 	db	99	;'c'
   403  007D76  69                 	db	105	;'i'
   404  007D77  74                 	db	116	;'t'
   405  007D78  65                 	db	101	;'e'
   406  007D79  64                 	db	100	;'d'
   407  007D7A  20                 	db	32
   408  007D7B  00                 	db	0
   409  007D7C                     STR_11:
   410  007D7C  73                 	db	115	;'s'
   411  007D7D  68                 	db	104	;'h'
   412  007D7E  65                 	db	101	;'e'
   413  007D7F  20                 	db	32
   414  007D80  77                 	db	119	;'w'
   415  007D81  61                 	db	97	;'a'
   416  007D82  73                 	db	115	;'s'
   417  007D83  20                 	db	32
   418  007D84  73                 	db	115	;'s'
   419  007D85  6F                 	db	111	;'o'
   420  007D86  20                 	db	32
   421  007D87  73                 	db	115	;'s'
   422  007D88  61                 	db	97	;'a'
   423  007D89  64                 	db	100	;'d'
   424  007D8A  20                 	db	32
   425  007D8B  51                 	db	81	;'Q'
   426  007D8C  51                 	db	81	;'Q'
   427  007D8D  2C                 	db	44
   428  007D8E  20                 	db	32
   429  007D8F  00                 	db	0
   430  007D90                     STR_2:
   431  007D90  0A                 	db	10
   432  007D91  4F                 	db	79	;'O'
   433  007D92  6E                 	db	110	;'n'
   434  007D93  65                 	db	101	;'e'
   435  007D94  20                 	db	32
   436  007D95  64                 	db	100	;'d'
   437  007D96  61                 	db	97	;'a'
   438  007D97  79                 	db	121	;'y'
   439  007D98  20                 	db	32
   440  007D99  61                 	db	97	;'a'
   441  007D9A  20                 	db	32
   442  007D9B  67                 	db	103	;'g'
   443  007D9C  69                 	db	105	;'i'
   444  007D9D  72                 	db	114	;'r'
   445  007D9E  6C                 	db	108	;'l'
   446  007D9F  20                 	db	32
   447  007DA0  69                 	db	105	;'i'
   448  007DA1  73                 	db	115	;'s'
   449  007DA2  20                 	db	32
   450  007DA3  00                 	db	0
   451  007DA4                     STR_10:
   452  007DA4  69                 	db	105	;'i'
   453  007DA5  73                 	db	115	;'s'
   454  007DA6  20                 	db	32
   455  007DA7  73                 	db	115	;'s'
   456  007DA8  70                 	db	112	;'p'
   457  007DA9  6C                 	db	108	;'l'
   458  007DAA  69                 	db	105	;'i'
   459  007DAB  74                 	db	116	;'t'
   460  007DAC  2C                 	db	44
   461  007DAD  20                 	db	32
   462  007DAE  00                 	db	0
   463  007DAF                     STR_3:
   464  007DAF  77                 	db	119	;'w'
   465  007DB0  61                 	db	97	;'a'
   466  007DB1  6C                 	db	108	;'l'
   467  007DB2  6B                 	db	107	;'k'
   468  007DB3  69                 	db	105	;'i'
   469  007DB4  6E                 	db	110	;'n'
   470  007DB5  67                 	db	103	;'g'
   471  007DB6  2C                 	db	44
   472  007DB7  20                 	db	32
   473  007DB8  00                 	db	0
   474  007DB9                     STR_1:
   475  007DB9  73                 	db	115	;'s'
   476  007DBA  74                 	db	116	;'t'
   477  007DBB  61                 	db	97	;'a'
   478  007DBC  72                 	db	114	;'r'
   479  007DBD  74                 	db	116	;'t'
   480  007DBE  00                 	db	0
   481  007DBF  00                 	db	0	; dummy byte at the end
   482  0000                     
   483                           ; #config settings
   484                           
   485                           	psect	cinit
   486  001468                     __pcinit:
   487                           	callstack 0
   488  001468                     start_initialization:
   489                           	callstack 0
   490  001468                     __initialization:
   491                           	callstack 0
   492                           
   493                           ; Clear objects allocated to COMRAM (42 bytes)
   494  001468  EE00  F001         	lfsr	0,__pbssCOMRAM
   495  00146C  0E2A               	movlw	42
   496  00146E                     clear_0:
   497  00146E  6AEE               	clrf	postinc0,c
   498  001470  06E8               	decf	wreg,f,c
   499  001472  E1FD               	bnz	clear_0
   500  001474                     end_of_initialization:
   501                           	callstack 0
   502  001474                     __end_of__initialization:
   503                           	callstack 0
   504  001474  9044               	bcf	int$flags,0,c	;clear compiler interrupt flag (level 1)
   505  001476  9244               	bcf	int$flags,1,c	;clear compiler interrupt flag (level 2)
   506  001478  0E00               	movlw	low (__Lmediumconst shr (0+16))
   507  00147A  6EF8               	movwf	tblptru,c
   508  00147C  0100               	movlb	0
   509  00147E  EF38  F000         	goto	_main	;jump to C main() function
   510                           
   511                           	psect	bssCOMRAM
   512  000001                     __pbssCOMRAM:
   513                           	callstack 0
   514  000001                     _lenStr:
   515                           	callstack 0
   516  000001                     	ds	2
   517  000003                     _str:
   518                           	callstack 0
   519  000003                     	ds	20
   520  000017                     _mystring:
   521                           	callstack 0
   522  000017                     	ds	20
   523                           
   524                           	psect	cstackCOMRAM
   525  00002B                     __pcstackCOMRAM:
   526                           	callstack 0
   527  00002B                     ?___awmod:
   528                           	callstack 0
   529  00002B                     i1UART_Write@data:
   530                           	callstack 0
   531  00002B                     ___awmod@dividend:
   532                           	callstack 0
   533                           
   534                           ; 2 bytes @ 0x0
   535  00002B                     	ds	2
   536  00002D                     ___awmod@divisor:
   537                           	callstack 0
   538                           
   539                           ; 2 bytes @ 0x2
   540  00002D                     	ds	2
   541  00002F                     ___awmod@counter:
   542                           	callstack 0
   543                           
   544                           ; 1 bytes @ 0x4
   545  00002F                     	ds	1
   546  000030                     ___awmod@sign:
   547                           	callstack 0
   548                           
   549                           ; 1 bytes @ 0x5
   550  000030                     	ds	1
   551  000031                     ??_Lo_ISR:
   552                           
   553                           ; 1 bytes @ 0x6
   554  000031                     	ds	5
   555  000036                     ?_GetString:
   556                           	callstack 0
   557  000036                     ?_strcmp:
   558                           	callstack 0
   559  000036                     ?_ADC_Read:
   560                           	callstack 0
   561  000036                     UART_Write@data:
   562                           	callstack 0
   563  000036                     setBits@b:
   564                           	callstack 0
   565  000036                     ClearBuffer@i:
   566                           	callstack 0
   567  000036                     ADC_Read@channel:
   568                           	callstack 0
   569  000036                     strcmp@l:
   570                           	callstack 0
   571                           
   572                           ; 2 bytes @ 0xB
   573  000036                     	ds	1
   574  000037                     setBits@c:
   575                           	callstack 0
   576  000037                     UART_Write_Text@text:
   577                           	callstack 0
   578                           
   579                           ; 2 bytes @ 0xC
   580  000037                     	ds	1
   581  000038                     setBits@d:
   582                           	callstack 0
   583  000038                     ADC_Read@digital:
   584                           	callstack 0
   585  000038                     strcmp@r:
   586                           	callstack 0
   587  000038                     strncpy@d:
   588                           	callstack 0
   589                           
   590                           ; 2 bytes @ 0xD
   591  000038                     	ds	1
   592  000039                     ??_UART_Write_Text:
   593  000039                     setBits@e:
   594                           	callstack 0
   595                           
   596                           ; 1 bytes @ 0xE
   597  000039                     	ds	1
   598  00003A                     ??_strcmp:
   599  00003A                     setBits@f:
   600                           	callstack 0
   601  00003A                     strncpy@s:
   602                           	callstack 0
   603                           
   604                           ; 2 bytes @ 0xF
   605  00003A                     	ds	1
   606  00003B                     setBits@g:
   607                           	callstack 0
   608  00003B                     UART_Write_Text@i:
   609                           	callstack 0
   610                           
   611                           ; 2 bytes @ 0x10
   612  00003B                     	ds	1
   613  00003C                     setBits@h:
   614                           	callstack 0
   615  00003C                     strncpy@n:
   616                           	callstack 0
   617                           
   618                           ; 2 bytes @ 0x11
   619  00003C                     	ds	1
   620  00003D                     setBits@a:
   621                           	callstack 0
   622                           
   623                           ; 1 bytes @ 0x12
   624  00003D                     	ds	1
   625  00003E                     strncpy@cp:
   626                           	callstack 0
   627                           
   628                           ; 2 bytes @ 0x13
   629  00003E                     	ds	2
   630  000040                     main@check:
   631                           	callstack 0
   632                           
   633                           ; 2 bytes @ 0x15
   634  000040                     	ds	2
   635  000042                     main@x:
   636                           	callstack 0
   637                           
   638                           ; 2 bytes @ 0x17
   639  000042                     	ds	2
   640                           
   641 ;;
   642 ;;Main: autosize = 0, tempsize = 0, incstack = 0, save=0
   643 ;;
   644 ;; *************** function _main *****************
   645 ;; Defined at:
   646 ;;		line 38 in file "main.c"
   647 ;; Parameters:    Size  Location     Type
   648 ;;		None
   649 ;; Auto vars:     Size  Location     Type
   650 ;;  x               2   23[COMRAM] unsigned int 
   651 ;;  check           2   21[COMRAM] int 
   652 ;; Return value:  Size  Location     Type
   653 ;;                  1    wreg      void 
   654 ;; Registers used:
   655 ;;		wreg, fsr1l, fsr1h, fsr2l, fsr2h, status,2, status,0, tblptrl, tblptrh, tblptru, cstack
   656 ;; Tracked objects:
   657 ;;		On entry : 0/0
   658 ;;		On exit  : 0/0
   659 ;;		Unchanged: 0/0
   660 ;; Data sizes:     COMRAM   BANK0   BANK1   BANK2   BANK3   BANK4   BANK5
   661 ;;      Params:         0       0       0       0       0       0       0
   662 ;;      Locals:         4       0       0       0       0       0       0
   663 ;;      Temps:          0       0       0       0       0       0       0
   664 ;;      Totals:         4       0       0       0       0       0       0
   665 ;;Total ram usage:        4 bytes
   666 ;; Hardware stack levels required when called:    6
   667 ;; This function calls:
   668 ;;		_ADC_Read
   669 ;;		_ClearBuffer
   670 ;;		_GetString
   671 ;;		_SYSTEM_Initialize
   672 ;;		_UART_Write_Text
   673 ;;		_setBits
   674 ;;		_strcmp
   675 ;;		_strncpy
   676 ;; This function is called by:
   677 ;;		Startup code after reset
   678 ;; This function uses a non-reentrant model
   679 ;;
   680                           
   681                           	psect	text0
   682  000070                     __ptext0:
   683                           	callstack 0
   684  000070                     _main:
   685                           	callstack 25
   686  000070                     
   687                           ;main.c: 43:     TRISD=0;
   688  000070  0E00               	movlw	0
   689  000072  6E95               	movwf	149,c	;volatile
   690                           
   691                           ;main.c: 44:     TRISC=0;
   692  000074  0E00               	movlw	0
   693  000076  6E94               	movwf	148,c	;volatile
   694                           
   695                           ;main.c: 45:     TRISE=0;
   696  000078  0E00               	movlw	0
   697  00007A  6E96               	movwf	150,c	;volatile
   698                           
   699                           ;main.c: 46:     TRISA=1;
   700  00007C  0E01               	movlw	1
   701  00007E  6E92               	movwf	146,c	;volatile
   702                           
   703                           ;main.c: 47:     PORTC = 0;
   704  000080  0E00               	movlw	0
   705  000082  6E82               	movwf	130,c	;volatile
   706  000084                     
   707                           ;main.c: 49:     ADCON1bits.VCFG1=0b0;
   708  000084  9AC1               	bcf	193,5,c	;volatile
   709  000086                     
   710                           ;main.c: 50:     ADCON1bits.VCFG0=0b0;
   711  000086  98C1               	bcf	193,4,c	;volatile
   712                           
   713                           ;main.c: 52:     ADCON1bits.PCFG=0b1110;
   714  000088  50C1               	movf	193,w,c	;volatile
   715  00008A  0BF0               	andlw	-16
   716  00008C  090E               	iorlw	14
   717  00008E  6EC1               	movwf	193,c	;volatile
   718                           
   719                           ;main.c: 56:     ADCON2bits.ADCS=0b100;
   720  000090  50C0               	movf	192,w,c	;volatile
   721  000092  0BF8               	andlw	-8
   722  000094  0904               	iorlw	4
   723  000096  6EC0               	movwf	192,c	;volatile
   724                           
   725                           ;main.c: 58:     ADCON2bits.ACQT=0b010;
   726  000098  50C0               	movf	192,w,c	;volatile
   727  00009A  0BC7               	andlw	-57
   728  00009C  0910               	iorlw	16
   729  00009E  6EC0               	movwf	192,c	;volatile
   730  0000A0                     
   731                           ;main.c: 60:     ADCON0bits.ADON=0b1;
   732  0000A0  80C2               	bsf	194,0,c	;volatile
   733  0000A2                     
   734                           ;main.c: 62:     ADCON2bits.ADFM=0b0;
   735  0000A2  9EC0               	bcf	192,7,c	;volatile
   736  0000A4                     
   737                           ;main.c: 72:     SYSTEM_Initialize() ;
   738  0000A4  EC4C  F00A         	call	_SYSTEM_Initialize	;wreg free
   739  0000A8                     
   740                           ;main.c: 73:     int check = 0;
   741  0000A8  0E00               	movlw	0
   742  0000AA  6E41               	movwf	(main@check+1)^0,c
   743  0000AC  0E00               	movlw	0
   744  0000AE  6E40               	movwf	main@check^0,c
   745  0000B0                     l1777:
   746                           
   747                           ;main.c: 78:         strncpy(str,GetString(),5);
   748  0000B0  0E03               	movlw	low _str
   749  0000B2  6E38               	movwf	strncpy@d^0,c
   750  0000B4  0E00               	movlw	high _str
   751  0000B6  6E39               	movwf	(strncpy@d+1)^0,c
   752  0000B8  EC73  F00A         	call	_GetString	;wreg free
   753  0000BC  C036  F03A         	movff	?_GetString,strncpy@s
   754  0000C0  C037  F03B         	movff	?_GetString+1,strncpy@s+1
   755  0000C4  0E00               	movlw	0
   756  0000C6  6E3D               	movwf	(strncpy@n+1)^0,c
   757  0000C8  0E05               	movlw	5
   758  0000CA  6E3C               	movwf	strncpy@n^0,c
   759  0000CC  ECEE  F008         	call	_strncpy	;wreg free
   760  0000D0                     
   761                           ;main.c: 79:         str[5]='\0';
   762  0000D0  0E00               	movlw	0
   763  0000D2  6E08               	movwf	(_str+5)^0,c
   764  0000D4                     
   765                           ;main.c: 80:         if(strcmp(str,"start") == 0) {
   766  0000D4  0E03               	movlw	low _str
   767  0000D6  6E36               	movwf	strcmp@l^0,c
   768  0000D8  0E00               	movlw	high _str
   769  0000DA  6E37               	movwf	(strcmp@l+1)^0,c
   770  0000DC  0EB9               	movlw	low STR_1
   771  0000DE  6E38               	movwf	strcmp@r^0,c
   772  0000E0  0E7D               	movlw	high STR_1
   773  0000E2  6E39               	movwf	(strcmp@r+1)^0,c
   774  0000E4  EC30  F009         	call	_strcmp	;wreg free
   775  0000E8  5036               	movf	?_strcmp^0,w,c
   776  0000EA  1037               	iorwf	(?_strcmp+1)^0,w,c
   777  0000EC  A4D8               	btfss	status,2,c
   778  0000EE  EF7B  F000         	goto	u841
   779  0000F2  EF7D  F000         	goto	u840
   780  0000F6                     u841:
   781  0000F6  EF87  F000         	goto	l1789
   782  0000FA                     u840:
   783  0000FA                     
   784                           ;main.c: 81:             ClearBuffer();
   785  0000FA  ECDF  F009         	call	_ClearBuffer	;wreg free
   786  0000FE                     
   787                           ;main.c: 82:             UART_Write_Text("\nOne day a girl is ");
   788  0000FE  0E90               	movlw	low STR_2
   789  000100  6E37               	movwf	UART_Write_Text@text^0,c
   790  000102  0E7D               	movlw	high STR_2
   791  000104  6E38               	movwf	(UART_Write_Text@text+1)^0,c
   792  000106  EC68  F009         	call	_UART_Write_Text	;wreg free
   793  00010A                     
   794                           ;main.c: 83:             ClearBuffer();
   795  00010A  ECDF  F009         	call	_ClearBuffer	;wreg free
   796  00010E                     l1789:
   797                           
   798                           ;main.c: 93:         if(0<=x&&x<23){
   799  00010E  0E00               	movlw	0
   800  000110  6E37               	movwf	(ADC_Read@channel+1)^0,c
   801  000112  0E00               	movlw	0
   802  000114  6E36               	movwf	ADC_Read@channel^0,c
   803  000116  EC00  F00A         	call	_ADC_Read	;wreg free
   804  00011A  C036  F042         	movff	?_ADC_Read,main@x
   805  00011E  C037  F043         	movff	?_ADC_Read+1,main@x+1
   806  000122  5043               	movf	(main@x+1)^0,w,c
   807  000124  E107               	bnz	u851
   808  000126  0E17               	movlw	23
   809  000128  5C42               	subwf	main@x^0,w,c
   810  00012A  B0D8               	btfsc	status,0,c
   811  00012C  EF9A  F000         	goto	u851
   812  000130  EF9C  F000         	goto	u850
   813  000134                     u851:
   814  000134  EF77  F001         	goto	l1847
   815  000138                     u850:
   816  000138                     
   817                           ;main.c: 94:             if(check == 0) {
   818  000138  5040               	movf	main@check^0,w,c
   819  00013A  1041               	iorwf	(main@check+1)^0,w,c
   820  00013C  A4D8               	btfss	status,2,c
   821  00013E  EFA3  F000         	goto	u861
   822  000142  EFA5  F000         	goto	u860
   823  000146                     u861:
   824  000146  EFAF  F000         	goto	l1799
   825  00014A                     u860:
   826  00014A                     
   827                           ;main.c: 95:                 UART_Write_Text("walking, ");
   828  00014A  0EAF               	movlw	low STR_3
   829  00014C  6E37               	movwf	UART_Write_Text@text^0,c
   830  00014E  0E7D               	movlw	high STR_3
   831  000150  6E38               	movwf	(UART_Write_Text@text+1)^0,c
   832  000152  EC68  F009         	call	_UART_Write_Text	;wreg free
   833  000156                     
   834                           ;main.c: 96:                 check = 1;
   835  000156  0E00               	movlw	0
   836  000158  6E41               	movwf	(main@check+1)^0,c
   837  00015A  0E01               	movlw	1
   838  00015C  6E40               	movwf	main@check^0,c
   839  00015E                     l1799:
   840                           
   841                           ;main.c: 98:             PORTD = 0b01111111;
   842  00015E  0E7F               	movlw	127
   843  000160  6E83               	movwf	131,c	;volatile
   844  000162                     
   845                           ;main.c: 99:             setBits(0,1,0,0,0,0,0,0);
   846  000162  0E01               	movlw	1
   847  000164  6E36               	movwf	setBits@b^0,c
   848  000166  0E00               	movlw	0
   849  000168  6E37               	movwf	setBits@c^0,c
   850  00016A  0E00               	movlw	0
   851  00016C  6E38               	movwf	setBits@d^0,c
   852  00016E  0E00               	movlw	0
   853  000170  6E39               	movwf	setBits@e^0,c
   854  000172  0E00               	movlw	0
   855  000174  6E3A               	movwf	setBits@f^0,c
   856  000176  0E00               	movlw	0
   857  000178  6E3B               	movwf	setBits@g^0,c
   858  00017A  0E00               	movlw	0
   859  00017C  6E3C               	movwf	setBits@h^0,c
   860  00017E  0E00               	movlw	0
   861  000180  EC93  F009         	call	_setBits
   862  000184                     
   863                           ;main.c: 100:             _delay((unsigned long)((30)*(200000/4000.0)));
   864  000184  0ED6               	movlw	214
   865  000186                     u1167:
   866  000186  D000               	nop2	
   867  000188  D000               	nop2	
   868  00018A  2EE8               	decfsz	wreg,f,c
   869  00018C  D7FC               	bra	u1167
   870  00018E  D000               	nop2	
   871  000190                     
   872                           ;main.c: 101:             PORTD = 0b10111111;
   873  000190  0EBF               	movlw	191
   874  000192  6E83               	movwf	131,c	;volatile
   875  000194                     
   876                           ;main.c: 102:             setBits(0,0,1,0,0,0,0,1);
   877  000194  0E00               	movlw	0
   878  000196  6E36               	movwf	setBits@b^0,c
   879  000198  0E01               	movlw	1
   880  00019A  6E37               	movwf	setBits@c^0,c
   881  00019C  0E00               	movlw	0
   882  00019E  6E38               	movwf	setBits@d^0,c
   883  0001A0  0E00               	movlw	0
   884  0001A2  6E39               	movwf	setBits@e^0,c
   885  0001A4  0E00               	movlw	0
   886  0001A6  6E3A               	movwf	setBits@f^0,c
   887  0001A8  0E00               	movlw	0
   888  0001AA  6E3B               	movwf	setBits@g^0,c
   889  0001AC  0E01               	movlw	1
   890  0001AE  6E3C               	movwf	setBits@h^0,c
   891  0001B0  0E00               	movlw	0
   892  0001B2  EC93  F009         	call	_setBits
   893  0001B6                     
   894                           ;main.c: 103:             _delay((unsigned long)((30)*(200000/4000.0)));
   895  0001B6  0ED6               	movlw	214
   896  0001B8                     u1177:
   897  0001B8  D000               	nop2	
   898  0001BA  D000               	nop2	
   899  0001BC  2EE8               	decfsz	wreg,f,c
   900  0001BE  D7FC               	bra	u1177
   901  0001C0  D000               	nop2	
   902  0001C2                     
   903                           ;main.c: 104:             PORTD = 0b11011111;
   904  0001C2  0EDF               	movlw	223
   905  0001C4  6E83               	movwf	131,c	;volatile
   906  0001C6                     
   907                           ;main.c: 105:             setBits(1,1,0,1,0,1,1,1);
   908  0001C6  0E01               	movlw	1
   909  0001C8  6E36               	movwf	setBits@b^0,c
   910  0001CA  0E00               	movlw	0
   911  0001CC  6E37               	movwf	setBits@c^0,c
   912  0001CE  0E01               	movlw	1
   913  0001D0  6E38               	movwf	setBits@d^0,c
   914  0001D2  0E00               	movlw	0
   915  0001D4  6E39               	movwf	setBits@e^0,c
   916  0001D6  0E01               	movlw	1
   917  0001D8  6E3A               	movwf	setBits@f^0,c
   918  0001DA  0E01               	movlw	1
   919  0001DC  6E3B               	movwf	setBits@g^0,c
   920  0001DE  0E01               	movlw	1
   921  0001E0  6E3C               	movwf	setBits@h^0,c
   922  0001E2  0E01               	movlw	1
   923  0001E4  EC93  F009         	call	_setBits
   924  0001E8                     
   925                           ;main.c: 106:             _delay((unsigned long)((30)*(200000/4000.0)));
   926  0001E8  0ED6               	movlw	214
   927  0001EA                     u1187:
   928  0001EA  D000               	nop2	
   929  0001EC  D000               	nop2	
   930  0001EE  2EE8               	decfsz	wreg,f,c
   931  0001F0  D7FC               	bra	u1187
   932  0001F2  D000               	nop2	
   933  0001F4                     
   934                           ;main.c: 107:             PORTD = 0b11101111;
   935  0001F4  0EEF               	movlw	239
   936  0001F6  6E83               	movwf	131,c	;volatile
   937  0001F8                     
   938                           ;main.c: 108:             setBits(1,1,1,1,1,0,0,0);
   939  0001F8  0E01               	movlw	1
   940  0001FA  6E36               	movwf	setBits@b^0,c
   941  0001FC  0E01               	movlw	1
   942  0001FE  6E37               	movwf	setBits@c^0,c
   943  000200  0E01               	movlw	1
   944  000202  6E38               	movwf	setBits@d^0,c
   945  000204  0E01               	movlw	1
   946  000206  6E39               	movwf	setBits@e^0,c
   947  000208  0E00               	movlw	0
   948  00020A  6E3A               	movwf	setBits@f^0,c
   949  00020C  0E00               	movlw	0
   950  00020E  6E3B               	movwf	setBits@g^0,c
   951  000210  0E00               	movlw	0
   952  000212  6E3C               	movwf	setBits@h^0,c
   953  000214  0E01               	movlw	1
   954  000216  EC93  F009         	call	_setBits
   955  00021A                     
   956                           ;main.c: 109:             _delay((unsigned long)((30)*(200000/4000.0)));
   957  00021A  0ED6               	movlw	214
   958  00021C                     u1197:
   959  00021C  D000               	nop2	
   960  00021E  D000               	nop2	
   961  000220  2EE8               	decfsz	wreg,f,c
   962  000222  D7FC               	bra	u1197
   963  000224  D000               	nop2	
   964  000226                     
   965                           ;main.c: 110:             PORTD = 0b11110111;
   966  000226  0EF7               	movlw	247
   967  000228  6E83               	movwf	131,c	;volatile
   968  00022A                     
   969                           ;main.c: 111:             setBits(1,1,0,1,0,1,0,1);
   970  00022A  0E01               	movlw	1
   971  00022C  6E36               	movwf	setBits@b^0,c
   972  00022E  0E00               	movlw	0
   973  000230  6E37               	movwf	setBits@c^0,c
   974  000232  0E01               	movlw	1
   975  000234  6E38               	movwf	setBits@d^0,c
   976  000236  0E00               	movlw	0
   977  000238  6E39               	movwf	setBits@e^0,c
   978  00023A  0E01               	movlw	1
   979  00023C  6E3A               	movwf	setBits@f^0,c
   980  00023E  0E00               	movlw	0
   981  000240  6E3B               	movwf	setBits@g^0,c
   982  000242  0E01               	movlw	1
   983  000244  6E3C               	movwf	setBits@h^0,c
   984  000246  0E01               	movlw	1
   985  000248  EC93  F009         	call	_setBits
   986  00024C                     
   987                           ;main.c: 112:             _delay((unsigned long)((30)*(200000/4000.0)));
   988  00024C  0ED6               	movlw	214
   989  00024E                     u1207:
   990  00024E  D000               	nop2	
   991  000250  D000               	nop2	
   992  000252  2EE8               	decfsz	wreg,f,c
   993  000254  D7FC               	bra	u1207
   994  000256  D000               	nop2	
   995  000258                     
   996                           ;main.c: 113:             PORTD = 0b11111011;
   997  000258  0EFB               	movlw	251
   998  00025A  6E83               	movwf	131,c	;volatile
   999  00025C                     
  1000                           ;main.c: 114:             setBits(0,0,0,1,0,0,1,1);
  1001  00025C  0E00               	movlw	0
  1002  00025E  6E36               	movwf	setBits@b^0,c
  1003  000260  0E00               	movlw	0
  1004  000262  6E37               	movwf	setBits@c^0,c
  1005  000264  0E01               	movlw	1
  1006  000266  6E38               	movwf	setBits@d^0,c
  1007  000268  0E00               	movlw	0
  1008  00026A  6E39               	movwf	setBits@e^0,c
  1009  00026C  0E00               	movlw	0
  1010  00026E  6E3A               	movwf	setBits@f^0,c
  1011  000270  0E01               	movlw	1
  1012  000272  6E3B               	movwf	setBits@g^0,c
  1013  000274  0E01               	movlw	1
  1014  000276  6E3C               	movwf	setBits@h^0,c
  1015  000278  0E00               	movlw	0
  1016  00027A  EC93  F009         	call	_setBits
  1017  00027E                     
  1018                           ;main.c: 115:             _delay((unsigned long)((30)*(200000/4000.0)));
  1019  00027E  0ED6               	movlw	214
  1020  000280                     u1217:
  1021  000280  D000               	nop2	
  1022  000282  D000               	nop2	
  1023  000284  2EE8               	decfsz	wreg,f,c
  1024  000286  D7FC               	bra	u1217
  1025  000288  D000               	nop2	
  1026  00028A                     
  1027                           ;main.c: 116:             PORTD = 0b11111101;
  1028  00028A  0EFD               	movlw	253
  1029  00028C  6E83               	movwf	131,c	;volatile
  1030  00028E                     
  1031                           ;main.c: 117:             setBits(0,0,0,1,0,0,0,0);
  1032  00028E  0E00               	movlw	0
  1033  000290  6E36               	movwf	setBits@b^0,c
  1034  000292  0E00               	movlw	0
  1035  000294  6E37               	movwf	setBits@c^0,c
  1036  000296  0E01               	movlw	1
  1037  000298  6E38               	movwf	setBits@d^0,c
  1038  00029A  0E00               	movlw	0
  1039  00029C  6E39               	movwf	setBits@e^0,c
  1040  00029E  0E00               	movlw	0
  1041  0002A0  6E3A               	movwf	setBits@f^0,c
  1042  0002A2  0E00               	movlw	0
  1043  0002A4  6E3B               	movwf	setBits@g^0,c
  1044  0002A6  0E00               	movlw	0
  1045  0002A8  6E3C               	movwf	setBits@h^0,c
  1046  0002AA  0E00               	movlw	0
  1047  0002AC  EC93  F009         	call	_setBits
  1048  0002B0                     
  1049                           ;main.c: 118:             _delay((unsigned long)((30)*(200000/4000.0)));
  1050  0002B0  0ED6               	movlw	214
  1051  0002B2                     u1227:
  1052  0002B2  D000               	nop2	
  1053  0002B4  D000               	nop2	
  1054  0002B6  2EE8               	decfsz	wreg,f,c
  1055  0002B8  D7FC               	bra	u1227
  1056  0002BA  D000               	nop2	
  1057  0002BC                     
  1058                           ;main.c: 119:             PORTD = 0b11111110;
  1059  0002BC  0EFE               	movlw	254
  1060  0002BE  6E83               	movwf	131,c	;volatile
  1061  0002C0                     
  1062                           ;main.c: 120:             setBits(0,0,0,0,0,0,0,0);
  1063  0002C0  0E00               	movlw	0
  1064  0002C2  6E36               	movwf	setBits@b^0,c
  1065  0002C4  0E00               	movlw	0
  1066  0002C6  6E37               	movwf	setBits@c^0,c
  1067  0002C8  0E00               	movlw	0
  1068  0002CA  6E38               	movwf	setBits@d^0,c
  1069  0002CC  0E00               	movlw	0
  1070  0002CE  6E39               	movwf	setBits@e^0,c
  1071  0002D0  0E00               	movlw	0
  1072  0002D2  6E3A               	movwf	setBits@f^0,c
  1073  0002D4  0E00               	movlw	0
  1074  0002D6  6E3B               	movwf	setBits@g^0,c
  1075  0002D8  0E00               	movlw	0
  1076  0002DA  6E3C               	movwf	setBits@h^0,c
  1077  0002DC  0E00               	movlw	0
  1078  0002DE  EC93  F009         	call	_setBits
  1079  0002E2                     
  1080                           ;main.c: 121:             _delay((unsigned long)((30)*(200000/4000.0)));
  1081  0002E2  0ED6               	movlw	214
  1082  0002E4                     u1237:
  1083  0002E4  D000               	nop2	
  1084  0002E6  D000               	nop2	
  1085  0002E8  2EE8               	decfsz	wreg,f,c
  1086  0002EA  D7FC               	bra	u1237
  1087  0002EC  D000               	nop2	
  1088  0002EE                     l1847:
  1089                           
  1090                           ;main.c: 123:         if(23<=x&&x<46){
  1091  0002EE  5043               	movf	(main@x+1)^0,w,c
  1092  0002F0  E109               	bnz	u870
  1093  0002F2  0E17               	movlw	23
  1094  0002F4  5C42               	subwf	main@x^0,w,c
  1095  0002F6  A0D8               	btfss	status,0,c
  1096  0002F8  EF80  F001         	goto	u871
  1097  0002FC  EF82  F001         	goto	u870
  1098  000300                     u871:
  1099  000300  EF51  F002         	goto	l1899
  1100  000304                     u870:
  1101  000304  5043               	movf	(main@x+1)^0,w,c
  1102  000306  E107               	bnz	u881
  1103  000308  0E2E               	movlw	46
  1104  00030A  5C42               	subwf	main@x^0,w,c
  1105  00030C  B0D8               	btfsc	status,0,c
  1106  00030E  EF8B  F001         	goto	u881
  1107  000312  EF8D  F001         	goto	u880
  1108  000316                     u881:
  1109  000316  EF51  F002         	goto	l1899
  1110  00031A                     u880:
  1111  00031A                     
  1112                           ;main.c: 124:             if(check == 1) {
  1113  00031A  0440               	decf	main@check^0,w,c
  1114  00031C  1041               	iorwf	(main@check+1)^0,w,c
  1115  00031E  A4D8               	btfss	status,2,c
  1116  000320  EF94  F001         	goto	u891
  1117  000324  EF96  F001         	goto	u890
  1118  000328                     u891:
  1119  000328  EFA0  F001         	goto	l1857
  1120  00032C                     u890:
  1121  00032C                     
  1122                           ;main.c: 125:                 UART_Write_Text("walking, ");
  1123  00032C  0EAF               	movlw	low STR_3
  1124  00032E  6E37               	movwf	UART_Write_Text@text^0,c
  1125  000330  0E7D               	movlw	high STR_3
  1126  000332  6E38               	movwf	(UART_Write_Text@text+1)^0,c
  1127  000334  EC68  F009         	call	_UART_Write_Text	;wreg free
  1128  000338                     
  1129                           ;main.c: 126:                 check = 0;
  1130  000338  0E00               	movlw	0
  1131  00033A  6E41               	movwf	(main@check+1)^0,c
  1132  00033C  0E00               	movlw	0
  1133  00033E  6E40               	movwf	main@check^0,c
  1134  000340                     l1857:
  1135                           
  1136                           ;main.c: 128:             PORTD = 0b00111111;
  1137  000340  0E3F               	movlw	63
  1138  000342  6E83               	movwf	131,c	;volatile
  1139  000344                     
  1140                           ;main.c: 129:             setBits(0,0,0,1,0,0,1,0);
  1141  000344  0E00               	movlw	0
  1142  000346  6E36               	movwf	setBits@b^0,c
  1143  000348  0E00               	movlw	0
  1144  00034A  6E37               	movwf	setBits@c^0,c
  1145  00034C  0E01               	movlw	1
  1146  00034E  6E38               	movwf	setBits@d^0,c
  1147  000350  0E00               	movlw	0
  1148  000352  6E39               	movwf	setBits@e^0,c
  1149  000354  0E00               	movlw	0
  1150  000356  6E3A               	movwf	setBits@f^0,c
  1151  000358  0E01               	movlw	1
  1152  00035A  6E3B               	movwf	setBits@g^0,c
  1153  00035C  0E00               	movlw	0
  1154  00035E  6E3C               	movwf	setBits@h^0,c
  1155  000360  0E00               	movlw	0
  1156  000362  EC93  F009         	call	_setBits
  1157  000366                     
  1158                           ;main.c: 130:             _delay((unsigned long)((30)*(200000/4000.0)));
  1159  000366  0ED6               	movlw	214
  1160  000368                     u1247:
  1161  000368  D000               	nop2	
  1162  00036A  D000               	nop2	
  1163  00036C  2EE8               	decfsz	wreg,f,c
  1164  00036E  D7FC               	bra	u1247
  1165  000370  D000               	nop2	
  1166  000372                     
  1167                           ;main.c: 131:             PORTD = 0b11011111;
  1168  000372  0EDF               	movlw	223
  1169  000374  6E83               	movwf	131,c	;volatile
  1170  000376                     
  1171                           ;main.c: 132:             setBits(1,1,0,1,0,1,0,0);
  1172  000376  0E01               	movlw	1
  1173  000378  6E36               	movwf	setBits@b^0,c
  1174  00037A  0E00               	movlw	0
  1175  00037C  6E37               	movwf	setBits@c^0,c
  1176  00037E  0E01               	movlw	1
  1177  000380  6E38               	movwf	setBits@d^0,c
  1178  000382  0E00               	movlw	0
  1179  000384  6E39               	movwf	setBits@e^0,c
  1180  000386  0E01               	movlw	1
  1181  000388  6E3A               	movwf	setBits@f^0,c
  1182  00038A  0E00               	movlw	0
  1183  00038C  6E3B               	movwf	setBits@g^0,c
  1184  00038E  0E00               	movlw	0
  1185  000390  6E3C               	movwf	setBits@h^0,c
  1186  000392  0E01               	movlw	1
  1187  000394  EC93  F009         	call	_setBits
  1188  000398                     
  1189                           ;main.c: 133:             _delay((unsigned long)((30)*(200000/4000.0)));
  1190  000398  0ED6               	movlw	214
  1191  00039A                     u1257:
  1192  00039A  D000               	nop2	
  1193  00039C  D000               	nop2	
  1194  00039E  2EE8               	decfsz	wreg,f,c
  1195  0003A0  D7FC               	bra	u1257
  1196  0003A2  D000               	nop2	
  1197  0003A4                     
  1198                           ;main.c: 134:             PORTD = 0b11101111;
  1199  0003A4  0EEF               	movlw	239
  1200  0003A6  6E83               	movwf	131,c	;volatile
  1201  0003A8                     
  1202                           ;main.c: 135:             setBits(1,1,1,1,1,0,0,1);
  1203  0003A8  0E01               	movlw	1
  1204  0003AA  6E36               	movwf	setBits@b^0,c
  1205  0003AC  0E01               	movlw	1
  1206  0003AE  6E37               	movwf	setBits@c^0,c
  1207  0003B0  0E01               	movlw	1
  1208  0003B2  6E38               	movwf	setBits@d^0,c
  1209  0003B4  0E01               	movlw	1
  1210  0003B6  6E39               	movwf	setBits@e^0,c
  1211  0003B8  0E00               	movlw	0
  1212  0003BA  6E3A               	movwf	setBits@f^0,c
  1213  0003BC  0E00               	movlw	0
  1214  0003BE  6E3B               	movwf	setBits@g^0,c
  1215  0003C0  0E01               	movlw	1
  1216  0003C2  6E3C               	movwf	setBits@h^0,c
  1217  0003C4  0E01               	movlw	1
  1218  0003C6  EC93  F009         	call	_setBits
  1219  0003CA                     
  1220                           ;main.c: 136:             _delay((unsigned long)((30)*(200000/4000.0)));
  1221  0003CA  0ED6               	movlw	214
  1222  0003CC                     u1267:
  1223  0003CC  D000               	nop2	
  1224  0003CE  D000               	nop2	
  1225  0003D0  2EE8               	decfsz	wreg,f,c
  1226  0003D2  D7FC               	bra	u1267
  1227  0003D4  D000               	nop2	
  1228  0003D6                     
  1229                           ;main.c: 137:             PORTD = 0b11110111;
  1230  0003D6  0EF7               	movlw	247
  1231  0003D8  6E83               	movwf	131,c	;volatile
  1232  0003DA                     
  1233                           ;main.c: 138:             setBits(1,1,0,1,0,1,1,1);
  1234  0003DA  0E01               	movlw	1
  1235  0003DC  6E36               	movwf	setBits@b^0,c
  1236  0003DE  0E00               	movlw	0
  1237  0003E0  6E37               	movwf	setBits@c^0,c
  1238  0003E2  0E01               	movlw	1
  1239  0003E4  6E38               	movwf	setBits@d^0,c
  1240  0003E6  0E00               	movlw	0
  1241  0003E8  6E39               	movwf	setBits@e^0,c
  1242  0003EA  0E01               	movlw	1
  1243  0003EC  6E3A               	movwf	setBits@f^0,c
  1244  0003EE  0E01               	movlw	1
  1245  0003F0  6E3B               	movwf	setBits@g^0,c
  1246  0003F2  0E01               	movlw	1
  1247  0003F4  6E3C               	movwf	setBits@h^0,c
  1248  0003F6  0E01               	movlw	1
  1249  0003F8  EC93  F009         	call	_setBits
  1250  0003FC                     
  1251                           ;main.c: 139:             _delay((unsigned long)((30)*(200000/4000.0)));
  1252  0003FC  0ED6               	movlw	214
  1253  0003FE                     u1277:
  1254  0003FE  D000               	nop2	
  1255  000400  D000               	nop2	
  1256  000402  2EE8               	decfsz	wreg,f,c
  1257  000404  D7FC               	bra	u1277
  1258  000406  D000               	nop2	
  1259  000408                     
  1260                           ;main.c: 140:             PORTD = 0b11111011;
  1261  000408  0EFB               	movlw	251
  1262  00040A  6E83               	movwf	131,c	;volatile
  1263  00040C                     
  1264                           ;main.c: 141:             setBits(0,0,0,0,1,0,0,0);
  1265  00040C  0E00               	movlw	0
  1266  00040E  6E36               	movwf	setBits@b^0,c
  1267  000410  0E00               	movlw	0
  1268  000412  6E37               	movwf	setBits@c^0,c
  1269  000414  0E00               	movlw	0
  1270  000416  6E38               	movwf	setBits@d^0,c
  1271  000418  0E01               	movlw	1
  1272  00041A  6E39               	movwf	setBits@e^0,c
  1273  00041C  0E00               	movlw	0
  1274  00041E  6E3A               	movwf	setBits@f^0,c
  1275  000420  0E00               	movlw	0
  1276  000422  6E3B               	movwf	setBits@g^0,c
  1277  000424  0E00               	movlw	0
  1278  000426  6E3C               	movwf	setBits@h^0,c
  1279  000428  0E00               	movlw	0
  1280  00042A  EC93  F009         	call	_setBits
  1281  00042E                     
  1282                           ;main.c: 142:             _delay((unsigned long)((30)*(200000/4000.0)));
  1283  00042E  0ED6               	movlw	214
  1284  000430                     u1287:
  1285  000430  D000               	nop2	
  1286  000432  D000               	nop2	
  1287  000434  2EE8               	decfsz	wreg,f,c
  1288  000436  D7FC               	bra	u1287
  1289  000438  D000               	nop2	
  1290  00043A                     
  1291                           ;main.c: 143:             PORTD = 0b11111101;
  1292  00043A  0EFD               	movlw	253
  1293  00043C  6E83               	movwf	131,c	;volatile
  1294  00043E                     
  1295                           ;main.c: 144:             setBits(0,0,0,0,0,1,0,0);
  1296  00043E  0E00               	movlw	0
  1297  000440  6E36               	movwf	setBits@b^0,c
  1298  000442  0E00               	movlw	0
  1299  000444  6E37               	movwf	setBits@c^0,c
  1300  000446  0E00               	movlw	0
  1301  000448  6E38               	movwf	setBits@d^0,c
  1302  00044A  0E00               	movlw	0
  1303  00044C  6E39               	movwf	setBits@e^0,c
  1304  00044E  0E01               	movlw	1
  1305  000450  6E3A               	movwf	setBits@f^0,c
  1306  000452  0E00               	movlw	0
  1307  000454  6E3B               	movwf	setBits@g^0,c
  1308  000456  0E00               	movlw	0
  1309  000458  6E3C               	movwf	setBits@h^0,c
  1310  00045A  0E00               	movlw	0
  1311  00045C  EC93  F009         	call	_setBits
  1312  000460                     
  1313                           ;main.c: 145:             _delay((unsigned long)((30)*(200000/4000.0)));
  1314  000460  0ED6               	movlw	214
  1315  000462                     u1297:
  1316  000462  D000               	nop2	
  1317  000464  D000               	nop2	
  1318  000466  2EE8               	decfsz	wreg,f,c
  1319  000468  D7FC               	bra	u1297
  1320  00046A  D000               	nop2	
  1321  00046C                     
  1322                           ;main.c: 146:             PORTD = 0b11111110;
  1323  00046C  0EFE               	movlw	254
  1324  00046E  6E83               	movwf	131,c	;volatile
  1325  000470                     
  1326                           ;main.c: 147:             setBits(0,0,0,0,0,0,0,0);
  1327  000470  0E00               	movlw	0
  1328  000472  6E36               	movwf	setBits@b^0,c
  1329  000474  0E00               	movlw	0
  1330  000476  6E37               	movwf	setBits@c^0,c
  1331  000478  0E00               	movlw	0
  1332  00047A  6E38               	movwf	setBits@d^0,c
  1333  00047C  0E00               	movlw	0
  1334  00047E  6E39               	movwf	setBits@e^0,c
  1335  000480  0E00               	movlw	0
  1336  000482  6E3A               	movwf	setBits@f^0,c
  1337  000484  0E00               	movlw	0
  1338  000486  6E3B               	movwf	setBits@g^0,c
  1339  000488  0E00               	movlw	0
  1340  00048A  6E3C               	movwf	setBits@h^0,c
  1341  00048C  0E00               	movlw	0
  1342  00048E  EC93  F009         	call	_setBits
  1343  000492                     l1897:
  1344                           
  1345                           ;main.c: 148:             _delay((unsigned long)((30)*(200000/4000.0)));
  1346  000492  0ED6               	movlw	214
  1347  000494                     u1307:
  1348  000494  D000               	nop2	
  1349  000496  D000               	nop2	
  1350  000498  2EE8               	decfsz	wreg,f,c
  1351  00049A  D7FC               	bra	u1307
  1352  00049C  D000               	nop2	
  1353                           
  1354                           ;main.c: 149:         }
  1355  00049E  EF58  F000         	goto	l1777
  1356  0004A2                     l1899:
  1357  0004A2  5043               	movf	(main@x+1)^0,w,c
  1358  0004A4  E109               	bnz	u900
  1359  0004A6  0E2E               	movlw	46
  1360  0004A8  5C42               	subwf	main@x^0,w,c
  1361  0004AA  A0D8               	btfss	status,0,c
  1362  0004AC  EF5A  F002         	goto	u901
  1363  0004B0  EF5C  F002         	goto	u900
  1364  0004B4                     u901:
  1365  0004B4  EF25  F003         	goto	l1951
  1366  0004B8                     u900:
  1367  0004B8  5043               	movf	(main@x+1)^0,w,c
  1368  0004BA  E107               	bnz	u911
  1369  0004BC  0E45               	movlw	69
  1370  0004BE  5C42               	subwf	main@x^0,w,c
  1371  0004C0  B0D8               	btfsc	status,0,c
  1372  0004C2  EF65  F002         	goto	u911
  1373  0004C6  EF67  F002         	goto	u910
  1374  0004CA                     u911:
  1375  0004CA  EF25  F003         	goto	l1951
  1376  0004CE                     u910:
  1377  0004CE                     
  1378                           ;main.c: 151:             if(check == 0) {
  1379  0004CE  5040               	movf	main@check^0,w,c
  1380  0004D0  1041               	iorwf	(main@check+1)^0,w,c
  1381  0004D2  A4D8               	btfss	status,2,c
  1382  0004D4  EF6E  F002         	goto	u921
  1383  0004D8  EF70  F002         	goto	u920
  1384  0004DC                     u921:
  1385  0004DC  EF7A  F002         	goto	l1909
  1386  0004E0                     u920:
  1387  0004E0                     
  1388                           ;main.c: 152:                 UART_Write_Text("then she felt thirsty, so she decided to 
      +                          buy a bubble tea, ");
  1389  0004E0  0EAE               	movlw	low STR_5
  1390  0004E2  6E37               	movwf	UART_Write_Text@text^0,c
  1391  0004E4  0E7C               	movlw	high STR_5
  1392  0004E6  6E38               	movwf	(UART_Write_Text@text+1)^0,c
  1393  0004E8  EC68  F009         	call	_UART_Write_Text	;wreg free
  1394  0004EC                     
  1395                           ;main.c: 153:                 check = 1;
  1396  0004EC  0E00               	movlw	0
  1397  0004EE  6E41               	movwf	(main@check+1)^0,c
  1398  0004F0  0E01               	movlw	1
  1399  0004F2  6E40               	movwf	main@check^0,c
  1400  0004F4                     l1909:
  1401                           
  1402                           ;main.c: 155:             PORTD = 0b01111111;
  1403  0004F4  0E7F               	movlw	127
  1404  0004F6  6E83               	movwf	131,c	;volatile
  1405  0004F8                     
  1406                           ;main.c: 156:             setBits(0,0,0,0,0,0,0,0);
  1407  0004F8  0E00               	movlw	0
  1408  0004FA  6E36               	movwf	setBits@b^0,c
  1409  0004FC  0E00               	movlw	0
  1410  0004FE  6E37               	movwf	setBits@c^0,c
  1411  000500  0E00               	movlw	0
  1412  000502  6E38               	movwf	setBits@d^0,c
  1413  000504  0E00               	movlw	0
  1414  000506  6E39               	movwf	setBits@e^0,c
  1415  000508  0E00               	movlw	0
  1416  00050A  6E3A               	movwf	setBits@f^0,c
  1417  00050C  0E00               	movlw	0
  1418  00050E  6E3B               	movwf	setBits@g^0,c
  1419  000510  0E00               	movlw	0
  1420  000512  6E3C               	movwf	setBits@h^0,c
  1421  000514  0E00               	movlw	0
  1422  000516  EC93  F009         	call	_setBits
  1423  00051A                     
  1424                           ;main.c: 157:             _delay((unsigned long)((30)*(200000/4000.0)));
  1425  00051A  0ED6               	movlw	214
  1426  00051C                     u1317:
  1427  00051C  D000               	nop2	
  1428  00051E  D000               	nop2	
  1429  000520  2EE8               	decfsz	wreg,f,c
  1430  000522  D7FC               	bra	u1317
  1431  000524  D000               	nop2	
  1432  000526                     
  1433                           ;main.c: 158:             PORTD = 0b10111111;
  1434  000526  0EBF               	movlw	191
  1435  000528  6E83               	movwf	131,c	;volatile
  1436  00052A                     
  1437                           ;main.c: 159:             setBits(0,0,1,1,0,0,0,0);
  1438  00052A  0E00               	movlw	0
  1439  00052C  6E36               	movwf	setBits@b^0,c
  1440  00052E  0E01               	movlw	1
  1441  000530  6E37               	movwf	setBits@c^0,c
  1442  000532  0E01               	movlw	1
  1443  000534  6E38               	movwf	setBits@d^0,c
  1444  000536  0E00               	movlw	0
  1445  000538  6E39               	movwf	setBits@e^0,c
  1446  00053A  0E00               	movlw	0
  1447  00053C  6E3A               	movwf	setBits@f^0,c
  1448  00053E  0E00               	movlw	0
  1449  000540  6E3B               	movwf	setBits@g^0,c
  1450  000542  0E00               	movlw	0
  1451  000544  6E3C               	movwf	setBits@h^0,c
  1452  000546  0E00               	movlw	0
  1453  000548  EC93  F009         	call	_setBits
  1454  00054C                     
  1455                           ;main.c: 160:             _delay((unsigned long)((30)*(200000/4000.0)));
  1456  00054C  0ED6               	movlw	214
  1457  00054E                     u1327:
  1458  00054E  D000               	nop2	
  1459  000550  D000               	nop2	
  1460  000552  2EE8               	decfsz	wreg,f,c
  1461  000554  D7FC               	bra	u1327
  1462  000556  D000               	nop2	
  1463  000558                     
  1464                           ;main.c: 161:             PORTD = 0b11001111;
  1465  000558  0ECF               	movlw	207
  1466  00055A  6E83               	movwf	131,c	;volatile
  1467  00055C                     
  1468                           ;main.c: 162:             setBits(0,0,1,1,1,1,1,1);
  1469  00055C  0E00               	movlw	0
  1470  00055E  6E36               	movwf	setBits@b^0,c
  1471  000560  0E01               	movlw	1
  1472  000562  6E37               	movwf	setBits@c^0,c
  1473  000564  0E01               	movlw	1
  1474  000566  6E38               	movwf	setBits@d^0,c
  1475  000568  0E01               	movlw	1
  1476  00056A  6E39               	movwf	setBits@e^0,c
  1477  00056C  0E01               	movlw	1
  1478  00056E  6E3A               	movwf	setBits@f^0,c
  1479  000570  0E01               	movlw	1
  1480  000572  6E3B               	movwf	setBits@g^0,c
  1481  000574  0E01               	movlw	1
  1482  000576  6E3C               	movwf	setBits@h^0,c
  1483  000578  0E00               	movlw	0
  1484  00057A  EC93  F009         	call	_setBits
  1485  00057E                     
  1486                           ;main.c: 163:             _delay((unsigned long)((30)*(200000/4000.0)));
  1487  00057E  0ED6               	movlw	214
  1488  000580                     u1337:
  1489  000580  D000               	nop2	
  1490  000582  D000               	nop2	
  1491  000584  2EE8               	decfsz	wreg,f,c
  1492  000586  D7FC               	bra	u1337
  1493  000588  D000               	nop2	
  1494  00058A                     
  1495                           ;main.c: 164:             PORTD = 0b11110111;
  1496  00058A  0EF7               	movlw	247
  1497  00058C  6E83               	movwf	131,c	;volatile
  1498  00058E                     
  1499                           ;main.c: 165:             setBits(1,1,1,1,1,1,1,1);
  1500  00058E  0E01               	movlw	1
  1501  000590  6E36               	movwf	setBits@b^0,c
  1502  000592  0E01               	movlw	1
  1503  000594  6E37               	movwf	setBits@c^0,c
  1504  000596  0E01               	movlw	1
  1505  000598  6E38               	movwf	setBits@d^0,c
  1506  00059A  0E01               	movlw	1
  1507  00059C  6E39               	movwf	setBits@e^0,c
  1508  00059E  0E01               	movlw	1
  1509  0005A0  6E3A               	movwf	setBits@f^0,c
  1510  0005A2  0E01               	movlw	1
  1511  0005A4  6E3B               	movwf	setBits@g^0,c
  1512  0005A6  0E01               	movlw	1
  1513  0005A8  6E3C               	movwf	setBits@h^0,c
  1514  0005AA  0E01               	movlw	1
  1515  0005AC  EC93  F009         	call	_setBits
  1516  0005B0                     
  1517                           ;main.c: 166:             _delay((unsigned long)((30)*(200000/4000.0)));
  1518  0005B0  0ED6               	movlw	214
  1519  0005B2                     u1347:
  1520  0005B2  D000               	nop2	
  1521  0005B4  D000               	nop2	
  1522  0005B6  2EE8               	decfsz	wreg,f,c
  1523  0005B8  D7FC               	bra	u1347
  1524  0005BA  D000               	nop2	
  1525  0005BC                     
  1526                           ;main.c: 167:             PORTD = 0b11111011;
  1527  0005BC  0EFB               	movlw	251
  1528  0005BE  6E83               	movwf	131,c	;volatile
  1529  0005C0                     
  1530                           ;main.c: 168:             setBits(1,0,1,1,1,1,1,1);
  1531  0005C0  0E00               	movlw	0
  1532  0005C2  6E36               	movwf	setBits@b^0,c
  1533  0005C4  0E01               	movlw	1
  1534  0005C6  6E37               	movwf	setBits@c^0,c
  1535  0005C8  0E01               	movlw	1
  1536  0005CA  6E38               	movwf	setBits@d^0,c
  1537  0005CC  0E01               	movlw	1
  1538  0005CE  6E39               	movwf	setBits@e^0,c
  1539  0005D0  0E01               	movlw	1
  1540  0005D2  6E3A               	movwf	setBits@f^0,c
  1541  0005D4  0E01               	movlw	1
  1542  0005D6  6E3B               	movwf	setBits@g^0,c
  1543  0005D8  0E01               	movlw	1
  1544  0005DA  6E3C               	movwf	setBits@h^0,c
  1545  0005DC  0E01               	movlw	1
  1546  0005DE  EC93  F009         	call	_setBits
  1547  0005E2                     
  1548                           ;main.c: 169:             _delay((unsigned long)((30)*(200000/4000.0)));
  1549  0005E2  0ED6               	movlw	214
  1550  0005E4                     u1357:
  1551  0005E4  D000               	nop2	
  1552  0005E6  D000               	nop2	
  1553  0005E8  2EE8               	decfsz	wreg,f,c
  1554  0005EA  D7FC               	bra	u1357
  1555  0005EC  D000               	nop2	
  1556  0005EE                     
  1557                           ;main.c: 170:             PORTD = 0b11111101;
  1558  0005EE  0EFD               	movlw	253
  1559  0005F0  6E83               	movwf	131,c	;volatile
  1560  0005F2                     
  1561                           ;main.c: 171:             setBits(1,0,1,1,0,0,0,0);
  1562  0005F2  0E00               	movlw	0
  1563  0005F4  6E36               	movwf	setBits@b^0,c
  1564  0005F6  0E01               	movlw	1
  1565  0005F8  6E37               	movwf	setBits@c^0,c
  1566  0005FA  0E01               	movlw	1
  1567  0005FC  6E38               	movwf	setBits@d^0,c
  1568  0005FE  0E00               	movlw	0
  1569  000600  6E39               	movwf	setBits@e^0,c
  1570  000602  0E00               	movlw	0
  1571  000604  6E3A               	movwf	setBits@f^0,c
  1572  000606  0E00               	movlw	0
  1573  000608  6E3B               	movwf	setBits@g^0,c
  1574  00060A  0E00               	movlw	0
  1575  00060C  6E3C               	movwf	setBits@h^0,c
  1576  00060E  0E01               	movlw	1
  1577  000610  EC93  F009         	call	_setBits
  1578  000614                     
  1579                           ;main.c: 172:             _delay((unsigned long)((30)*(200000/4000.0)));
  1580  000614  0ED6               	movlw	214
  1581  000616                     u1367:
  1582  000616  D000               	nop2	
  1583  000618  D000               	nop2	
  1584  00061A  2EE8               	decfsz	wreg,f,c
  1585  00061C  D7FC               	bra	u1367
  1586  00061E  D000               	nop2	
  1587  000620                     
  1588                           ;main.c: 173:             PORTD = 0b11111110;
  1589  000620  0EFE               	movlw	254
  1590  000622  6E83               	movwf	131,c	;volatile
  1591  000624                     
  1592                           ;main.c: 174:             setBits(0,0,0,0,0,0,0,0);
  1593  000624  0E00               	movlw	0
  1594  000626  6E36               	movwf	setBits@b^0,c
  1595  000628  0E00               	movlw	0
  1596  00062A  6E37               	movwf	setBits@c^0,c
  1597  00062C  0E00               	movlw	0
  1598  00062E  6E38               	movwf	setBits@d^0,c
  1599  000630  0E00               	movlw	0
  1600  000632  6E39               	movwf	setBits@e^0,c
  1601  000634  0E00               	movlw	0
  1602  000636  6E3A               	movwf	setBits@f^0,c
  1603  000638  0E00               	movlw	0
  1604  00063A  6E3B               	movwf	setBits@g^0,c
  1605  00063C  0E00               	movlw	0
  1606  00063E  6E3C               	movwf	setBits@h^0,c
  1607  000640  0E00               	movlw	0
  1608  000642  EC93  F009         	call	_setBits
  1609  000646  EF49  F002         	goto	l1897
  1610  00064A                     l1951:
  1611  00064A  5043               	movf	(main@x+1)^0,w,c
  1612  00064C  E109               	bnz	u930
  1613  00064E  0E45               	movlw	69
  1614  000650  5C42               	subwf	main@x^0,w,c
  1615  000652  A0D8               	btfss	status,0,c
  1616  000654  EF2E  F003         	goto	u931
  1617  000658  EF30  F003         	goto	u930
  1618  00065C                     u931:
  1619  00065C  EFAE  F003         	goto	l1985
  1620  000660                     u930:
  1621  000660  5043               	movf	(main@x+1)^0,w,c
  1622  000662  E107               	bnz	u941
  1623  000664  0E5C               	movlw	92
  1624  000666  5C42               	subwf	main@x^0,w,c
  1625  000668  B0D8               	btfsc	status,0,c
  1626  00066A  EF39  F003         	goto	u941
  1627  00066E  EF3B  F003         	goto	u940
  1628  000672                     u941:
  1629  000672  EFAE  F003         	goto	l1985
  1630  000676                     u940:
  1631  000676                     
  1632                           ;main.c: 178:             if(check == 1) {
  1633  000676  0440               	decf	main@check^0,w,c
  1634  000678  1041               	iorwf	(main@check+1)^0,w,c
  1635  00067A  A4D8               	btfss	status,2,c
  1636  00067C  EF42  F003         	goto	u951
  1637  000680  EF44  F003         	goto	u950
  1638  000684                     u951:
  1639  000684  EF4E  F003         	goto	l1961
  1640  000688                     u950:
  1641  000688                     
  1642                           ;main.c: 179:                 UART_Write_Text("after she got the drink, ");
  1643  000688  0E4D               	movlw	low STR_6
  1644  00068A  6E37               	movwf	UART_Write_Text@text^0,c
  1645  00068C  0E7D               	movlw	high STR_6
  1646  00068E  6E38               	movwf	(UART_Write_Text@text+1)^0,c
  1647  000690  EC68  F009         	call	_UART_Write_Text	;wreg free
  1648  000694                     
  1649                           ;main.c: 180:                 check = 0;
  1650  000694  0E00               	movlw	0
  1651  000696  6E41               	movwf	(main@check+1)^0,c
  1652  000698  0E00               	movlw	0
  1653  00069A  6E40               	movwf	main@check^0,c
  1654  00069C                     l1961:
  1655                           
  1656                           ;main.c: 182:             PORTD = 0b01110111;
  1657  00069C  0E77               	movlw	119
  1658  00069E  6E83               	movwf	131,c	;volatile
  1659  0006A0                     
  1660                           ;main.c: 183:             setBits(0,0,0,1,0,0,0,1);
  1661  0006A0  0E00               	movlw	0
  1662  0006A2  6E36               	movwf	setBits@b^0,c
  1663  0006A4  0E00               	movlw	0
  1664  0006A6  6E37               	movwf	setBits@c^0,c
  1665  0006A8  0E01               	movlw	1
  1666  0006AA  6E38               	movwf	setBits@d^0,c
  1667  0006AC  0E00               	movlw	0
  1668  0006AE  6E39               	movwf	setBits@e^0,c
  1669  0006B0  0E00               	movlw	0
  1670  0006B2  6E3A               	movwf	setBits@f^0,c
  1671  0006B4  0E00               	movlw	0
  1672  0006B6  6E3B               	movwf	setBits@g^0,c
  1673  0006B8  0E01               	movlw	1
  1674  0006BA  6E3C               	movwf	setBits@h^0,c
  1675  0006BC  0E00               	movlw	0
  1676  0006BE  EC93  F009         	call	_setBits
  1677  0006C2                     
  1678                           ;main.c: 184:             _delay((unsigned long)((30)*(200000/4000.0)));
  1679  0006C2  0ED6               	movlw	214
  1680  0006C4                     u1377:
  1681  0006C4  D000               	nop2	
  1682  0006C6  D000               	nop2	
  1683  0006C8  2EE8               	decfsz	wreg,f,c
  1684  0006CA  D7FC               	bra	u1377
  1685  0006CC  D000               	nop2	
  1686  0006CE                     
  1687                           ;main.c: 185:             PORTD = 0b10101111;
  1688  0006CE  0EAF               	movlw	175
  1689  0006D0  6E83               	movwf	131,c	;volatile
  1690  0006D2                     
  1691                           ;main.c: 186:             setBits(1,1,1,0,1,0,1,0);
  1692  0006D2  0E01               	movlw	1
  1693  0006D4  6E36               	movwf	setBits@b^0,c
  1694  0006D6  0E01               	movlw	1
  1695  0006D8  6E37               	movwf	setBits@c^0,c
  1696  0006DA  0E00               	movlw	0
  1697  0006DC  6E38               	movwf	setBits@d^0,c
  1698  0006DE  0E01               	movlw	1
  1699  0006E0  6E39               	movwf	setBits@e^0,c
  1700  0006E2  0E00               	movlw	0
  1701  0006E4  6E3A               	movwf	setBits@f^0,c
  1702  0006E6  0E01               	movlw	1
  1703  0006E8  6E3B               	movwf	setBits@g^0,c
  1704  0006EA  0E00               	movlw	0
  1705  0006EC  6E3C               	movwf	setBits@h^0,c
  1706  0006EE  0E01               	movlw	1
  1707  0006F0  EC93  F009         	call	_setBits
  1708  0006F4                     
  1709                           ;main.c: 187:             _delay((unsigned long)((30)*(200000/4000.0)));
  1710  0006F4  0ED6               	movlw	214
  1711  0006F6                     u1387:
  1712  0006F6  D000               	nop2	
  1713  0006F8  D000               	nop2	
  1714  0006FA  2EE8               	decfsz	wreg,f,c
  1715  0006FC  D7FC               	bra	u1387
  1716  0006FE  D000               	nop2	
  1717  000700                     
  1718                           ;main.c: 188:             PORTD = 0b11011111;
  1719  000700  0EDF               	movlw	223
  1720  000702  6E83               	movwf	131,c	;volatile
  1721  000704                     
  1722                           ;main.c: 189:             setBits(1,1,1,1,1,1,0,0);
  1723  000704  0E01               	movlw	1
  1724  000706  6E36               	movwf	setBits@b^0,c
  1725  000708  0E01               	movlw	1
  1726  00070A  6E37               	movwf	setBits@c^0,c
  1727  00070C  0E01               	movlw	1
  1728  00070E  6E38               	movwf	setBits@d^0,c
  1729  000710  0E01               	movlw	1
  1730  000712  6E39               	movwf	setBits@e^0,c
  1731  000714  0E01               	movlw	1
  1732  000716  6E3A               	movwf	setBits@f^0,c
  1733  000718  0E00               	movlw	0
  1734  00071A  6E3B               	movwf	setBits@g^0,c
  1735  00071C  0E00               	movlw	0
  1736  00071E  6E3C               	movwf	setBits@h^0,c
  1737  000720  0E01               	movlw	1
  1738  000722  EC93  F009         	call	_setBits
  1739  000726                     
  1740                           ;main.c: 190:             _delay((unsigned long)((30)*(200000/4000.0)));
  1741  000726  0ED6               	movlw	214
  1742  000728                     u1397:
  1743  000728  D000               	nop2	
  1744  00072A  D000               	nop2	
  1745  00072C  2EE8               	decfsz	wreg,f,c
  1746  00072E  D7FC               	bra	u1397
  1747  000730  D000               	nop2	
  1748  000732                     
  1749                           ;main.c: 191:             PORTD = 0b11111000;
  1750  000732  0EF8               	movlw	248
  1751  000734  6E83               	movwf	131,c	;volatile
  1752  000736                     
  1753                           ;main.c: 192:             setBits(0,0,0,0,0,0,0,0);
  1754  000736  0E00               	movlw	0
  1755  000738  6E36               	movwf	setBits@b^0,c
  1756  00073A  0E00               	movlw	0
  1757  00073C  6E37               	movwf	setBits@c^0,c
  1758  00073E  0E00               	movlw	0
  1759  000740  6E38               	movwf	setBits@d^0,c
  1760  000742  0E00               	movlw	0
  1761  000744  6E39               	movwf	setBits@e^0,c
  1762  000746  0E00               	movlw	0
  1763  000748  6E3A               	movwf	setBits@f^0,c
  1764  00074A  0E00               	movlw	0
  1765  00074C  6E3B               	movwf	setBits@g^0,c
  1766  00074E  0E00               	movlw	0
  1767  000750  6E3C               	movwf	setBits@h^0,c
  1768  000752  0E00               	movlw	0
  1769  000754  EC93  F009         	call	_setBits
  1770  000758  EF49  F002         	goto	l1897
  1771  00075C                     l1985:
  1772  00075C  5043               	movf	(main@x+1)^0,w,c
  1773  00075E  E109               	bnz	u960
  1774  000760  0E5C               	movlw	92
  1775  000762  5C42               	subwf	main@x^0,w,c
  1776  000764  A0D8               	btfss	status,0,c
  1777  000766  EFB7  F003         	goto	u961
  1778  00076A  EFB9  F003         	goto	u960
  1779  00076E                     u961:
  1780  00076E  EF82  F004         	goto	l2037
  1781  000772                     u960:
  1782  000772  5043               	movf	(main@x+1)^0,w,c
  1783  000774  E107               	bnz	u971
  1784  000776  0E73               	movlw	115
  1785  000778  5C42               	subwf	main@x^0,w,c
  1786  00077A  B0D8               	btfsc	status,0,c
  1787  00077C  EFC2  F003         	goto	u971
  1788  000780  EFC4  F003         	goto	u970
  1789  000784                     u971:
  1790  000784  EF82  F004         	goto	l2037
  1791  000788                     u970:
  1792  000788                     
  1793                           ;main.c: 196:             if(check == 0) {
  1794  000788  5040               	movf	main@check^0,w,c
  1795  00078A  1041               	iorwf	(main@check+1)^0,w,c
  1796  00078C  A4D8               	btfss	status,2,c
  1797  00078E  EFCB  F003         	goto	u981
  1798  000792  EFCD  F003         	goto	u980
  1799  000796                     u981:
  1800  000796  EFD7  F003         	goto	l1995
  1801  00079A                     u980:
  1802  00079A                     
  1803                           ;main.c: 197:                 UART_Write_Text("she was too excited ");
  1804  00079A  0E67               	movlw	low STR_7
  1805  00079C  6E37               	movwf	UART_Write_Text@text^0,c
  1806  00079E  0E7D               	movlw	high STR_7
  1807  0007A0  6E38               	movwf	(UART_Write_Text@text+1)^0,c
  1808  0007A2  EC68  F009         	call	_UART_Write_Text	;wreg free
  1809  0007A6                     
  1810                           ;main.c: 198:                 check = 1;
  1811  0007A6  0E00               	movlw	0
  1812  0007A8  6E41               	movwf	(main@check+1)^0,c
  1813  0007AA  0E01               	movlw	1
  1814  0007AC  6E40               	movwf	main@check^0,c
  1815  0007AE                     l1995:
  1816                           
  1817                           ;main.c: 200:             PORTD = 0b01111111;
  1818  0007AE  0E7F               	movlw	127
  1819  0007B0  6E83               	movwf	131,c	;volatile
  1820  0007B2                     
  1821                           ;main.c: 201:             setBits(0,0,0,1,0,0,0,0);
  1822  0007B2  0E00               	movlw	0
  1823  0007B4  6E36               	movwf	setBits@b^0,c
  1824  0007B6  0E00               	movlw	0
  1825  0007B8  6E37               	movwf	setBits@c^0,c
  1826  0007BA  0E01               	movlw	1
  1827  0007BC  6E38               	movwf	setBits@d^0,c
  1828  0007BE  0E00               	movlw	0
  1829  0007C0  6E39               	movwf	setBits@e^0,c
  1830  0007C2  0E00               	movlw	0
  1831  0007C4  6E3A               	movwf	setBits@f^0,c
  1832  0007C6  0E00               	movlw	0
  1833  0007C8  6E3B               	movwf	setBits@g^0,c
  1834  0007CA  0E00               	movlw	0
  1835  0007CC  6E3C               	movwf	setBits@h^0,c
  1836  0007CE  0E00               	movlw	0
  1837  0007D0  EC93  F009         	call	_setBits
  1838  0007D4                     
  1839                           ;main.c: 202:             _delay((unsigned long)((30)*(200000/4000.0)));
  1840  0007D4  0ED6               	movlw	214
  1841  0007D6                     u1407:
  1842  0007D6  D000               	nop2	
  1843  0007D8  D000               	nop2	
  1844  0007DA  2EE8               	decfsz	wreg,f,c
  1845  0007DC  D7FC               	bra	u1407
  1846  0007DE  D000               	nop2	
  1847  0007E0                     
  1848                           ;main.c: 203:             PORTD = 0b10111111;
  1849  0007E0  0EBF               	movlw	191
  1850  0007E2  6E83               	movwf	131,c	;volatile
  1851  0007E4                     
  1852                           ;main.c: 204:             setBits(0,0,0,0,1,0,0,0);
  1853  0007E4  0E00               	movlw	0
  1854  0007E6  6E36               	movwf	setBits@b^0,c
  1855  0007E8  0E00               	movlw	0
  1856  0007EA  6E37               	movwf	setBits@c^0,c
  1857  0007EC  0E00               	movlw	0
  1858  0007EE  6E38               	movwf	setBits@d^0,c
  1859  0007F0  0E01               	movlw	1
  1860  0007F2  6E39               	movwf	setBits@e^0,c
  1861  0007F4  0E00               	movlw	0
  1862  0007F6  6E3A               	movwf	setBits@f^0,c
  1863  0007F8  0E00               	movlw	0
  1864  0007FA  6E3B               	movwf	setBits@g^0,c
  1865  0007FC  0E00               	movlw	0
  1866  0007FE  6E3C               	movwf	setBits@h^0,c
  1867  000800  0E00               	movlw	0
  1868  000802  EC93  F009         	call	_setBits
  1869  000806                     
  1870                           ;main.c: 205:             _delay((unsigned long)((30)*(200000/4000.0)));
  1871  000806  0ED6               	movlw	214
  1872  000808                     u1417:
  1873  000808  D000               	nop2	
  1874  00080A  D000               	nop2	
  1875  00080C  2EE8               	decfsz	wreg,f,c
  1876  00080E  D7FC               	bra	u1417
  1877  000810  D000               	nop2	
  1878  000812                     
  1879                           ;main.c: 206:             PORTD = 0b11011111;
  1880  000812  0EDF               	movlw	223
  1881  000814  6E83               	movwf	131,c	;volatile
  1882  000816                     
  1883                           ;main.c: 207:             setBits(0,1,1,0,1,1,0,0);
  1884  000816  0E01               	movlw	1
  1885  000818  6E36               	movwf	setBits@b^0,c
  1886  00081A  0E01               	movlw	1
  1887  00081C  6E37               	movwf	setBits@c^0,c
  1888  00081E  0E00               	movlw	0
  1889  000820  6E38               	movwf	setBits@d^0,c
  1890  000822  0E01               	movlw	1
  1891  000824  6E39               	movwf	setBits@e^0,c
  1892  000826  0E01               	movlw	1
  1893  000828  6E3A               	movwf	setBits@f^0,c
  1894  00082A  0E00               	movlw	0
  1895  00082C  6E3B               	movwf	setBits@g^0,c
  1896  00082E  0E00               	movlw	0
  1897  000830  6E3C               	movwf	setBits@h^0,c
  1898  000832  0E00               	movlw	0
  1899  000834  EC93  F009         	call	_setBits
  1900  000838                     
  1901                           ;main.c: 208:             _delay((unsigned long)((30)*(200000/4000.0)));
  1902  000838  0ED6               	movlw	214
  1903  00083A                     u1427:
  1904  00083A  D000               	nop2	
  1905  00083C  D000               	nop2	
  1906  00083E  2EE8               	decfsz	wreg,f,c
  1907  000840  D7FC               	bra	u1427
  1908  000842  D000               	nop2	
  1909  000844                     
  1910                           ;main.c: 209:             PORTD = 0b11101111;
  1911  000844  0EEF               	movlw	239
  1912  000846  6E83               	movwf	131,c	;volatile
  1913  000848                     
  1914                           ;main.c: 210:             setBits(0,0,0,1,0,0,1,0);
  1915  000848  0E00               	movlw	0
  1916  00084A  6E36               	movwf	setBits@b^0,c
  1917  00084C  0E00               	movlw	0
  1918  00084E  6E37               	movwf	setBits@c^0,c
  1919  000850  0E01               	movlw	1
  1920  000852  6E38               	movwf	setBits@d^0,c
  1921  000854  0E00               	movlw	0
  1922  000856  6E39               	movwf	setBits@e^0,c
  1923  000858  0E00               	movlw	0
  1924  00085A  6E3A               	movwf	setBits@f^0,c
  1925  00085C  0E01               	movlw	1
  1926  00085E  6E3B               	movwf	setBits@g^0,c
  1927  000860  0E00               	movlw	0
  1928  000862  6E3C               	movwf	setBits@h^0,c
  1929  000864  0E00               	movlw	0
  1930  000866  EC93  F009         	call	_setBits
  1931  00086A                     
  1932                           ;main.c: 211:             _delay((unsigned long)((30)*(200000/4000.0)));
  1933  00086A  0ED6               	movlw	214
  1934  00086C                     u1437:
  1935  00086C  D000               	nop2	
  1936  00086E  D000               	nop2	
  1937  000870  2EE8               	decfsz	wreg,f,c
  1938  000872  D7FC               	bra	u1437
  1939  000874  D000               	nop2	
  1940  000876                     
  1941                           ;main.c: 212:             PORTD = 0b11110011;
  1942  000876  0EF3               	movlw	243
  1943  000878  6E83               	movwf	131,c	;volatile
  1944  00087A                     
  1945                           ;main.c: 213:             setBits(1,1,1,0,1,0,0,0);
  1946  00087A  0E01               	movlw	1
  1947  00087C  6E36               	movwf	setBits@b^0,c
  1948  00087E  0E01               	movlw	1
  1949  000880  6E37               	movwf	setBits@c^0,c
  1950  000882  0E00               	movlw	0
  1951  000884  6E38               	movwf	setBits@d^0,c
  1952  000886  0E01               	movlw	1
  1953  000888  6E39               	movwf	setBits@e^0,c
  1954  00088A  0E00               	movlw	0
  1955  00088C  6E3A               	movwf	setBits@f^0,c
  1956  00088E  0E00               	movlw	0
  1957  000890  6E3B               	movwf	setBits@g^0,c
  1958  000892  0E00               	movlw	0
  1959  000894  6E3C               	movwf	setBits@h^0,c
  1960  000896  0E01               	movlw	1
  1961  000898  EC93  F009         	call	_setBits
  1962  00089C                     
  1963                           ;main.c: 214:             _delay((unsigned long)((30)*(200000/4000.0)));
  1964  00089C  0ED6               	movlw	214
  1965  00089E                     u1447:
  1966  00089E  D000               	nop2	
  1967  0008A0  D000               	nop2	
  1968  0008A2  2EE8               	decfsz	wreg,f,c
  1969  0008A4  D7FC               	bra	u1447
  1970  0008A6  D000               	nop2	
  1971  0008A8                     
  1972                           ;main.c: 215:             PORTD = 0b11111101;
  1973  0008A8  0EFD               	movlw	253
  1974  0008AA  6E83               	movwf	131,c	;volatile
  1975  0008AC                     
  1976                           ;main.c: 216:             setBits(1,1,1,0,0,0,0,0);
  1977  0008AC  0E01               	movlw	1
  1978  0008AE  6E36               	movwf	setBits@b^0,c
  1979  0008B0  0E01               	movlw	1
  1980  0008B2  6E37               	movwf	setBits@c^0,c
  1981  0008B4  0E00               	movlw	0
  1982  0008B6  6E38               	movwf	setBits@d^0,c
  1983  0008B8  0E00               	movlw	0
  1984  0008BA  6E39               	movwf	setBits@e^0,c
  1985  0008BC  0E00               	movlw	0
  1986  0008BE  6E3A               	movwf	setBits@f^0,c
  1987  0008C0  0E00               	movlw	0
  1988  0008C2  6E3B               	movwf	setBits@g^0,c
  1989  0008C4  0E00               	movlw	0
  1990  0008C6  6E3C               	movwf	setBits@h^0,c
  1991  0008C8  0E01               	movlw	1
  1992  0008CA  EC93  F009         	call	_setBits
  1993  0008CE                     
  1994                           ;main.c: 217:             _delay((unsigned long)((30)*(200000/4000.0)));
  1995  0008CE  0ED6               	movlw	214
  1996  0008D0                     u1457:
  1997  0008D0  D000               	nop2	
  1998  0008D2  D000               	nop2	
  1999  0008D4  2EE8               	decfsz	wreg,f,c
  2000  0008D6  D7FC               	bra	u1457
  2001  0008D8  D000               	nop2	
  2002  0008DA                     
  2003                           ;main.c: 218:             PORTD = 0b11111110;
  2004  0008DA  0EFE               	movlw	254
  2005  0008DC  6E83               	movwf	131,c	;volatile
  2006  0008DE                     
  2007                           ;main.c: 219:             setBits(0,0,0,0,0,0,0,0);
  2008  0008DE  0E00               	movlw	0
  2009  0008E0  6E36               	movwf	setBits@b^0,c
  2010  0008E2  0E00               	movlw	0
  2011  0008E4  6E37               	movwf	setBits@c^0,c
  2012  0008E6  0E00               	movlw	0
  2013  0008E8  6E38               	movwf	setBits@d^0,c
  2014  0008EA  0E00               	movlw	0
  2015  0008EC  6E39               	movwf	setBits@e^0,c
  2016  0008EE  0E00               	movlw	0
  2017  0008F0  6E3A               	movwf	setBits@f^0,c
  2018  0008F2  0E00               	movlw	0
  2019  0008F4  6E3B               	movwf	setBits@g^0,c
  2020  0008F6  0E00               	movlw	0
  2021  0008F8  6E3C               	movwf	setBits@h^0,c
  2022  0008FA  0E00               	movlw	0
  2023  0008FC  EC93  F009         	call	_setBits
  2024  000900  EF49  F002         	goto	l1897
  2025  000904                     l2037:
  2026  000904  5043               	movf	(main@x+1)^0,w,c
  2027  000906  E109               	bnz	u990
  2028  000908  0E73               	movlw	115
  2029  00090A  5C42               	subwf	main@x^0,w,c
  2030  00090C  A0D8               	btfss	status,0,c
  2031  00090E  EF8B  F004         	goto	u991
  2032  000912  EF8D  F004         	goto	u990
  2033  000916                     u991:
  2034  000916  EF73  F005         	goto	l2095
  2035  00091A                     u990:
  2036  00091A  5043               	movf	(main@x+1)^0,w,c
  2037  00091C  E107               	bnz	u1001
  2038  00091E  0E8A               	movlw	138
  2039  000920  5C42               	subwf	main@x^0,w,c
  2040  000922  B0D8               	btfsc	status,0,c
  2041  000924  EF96  F004         	goto	u1001
  2042  000928  EF98  F004         	goto	u1000
  2043  00092C                     u1001:
  2044  00092C  EF73  F005         	goto	l2095
  2045  000930                     u1000:
  2046  000930                     
  2047                           ;main.c: 223:             if(check == 1) {
  2048  000930  0440               	decf	main@check^0,w,c
  2049  000932  1041               	iorwf	(main@check+1)^0,w,c
  2050  000934  A4D8               	btfss	status,2,c
  2051  000936  EF9F  F004         	goto	u1011
  2052  00093A  EFA1  F004         	goto	u1010
  2053  00093E                     u1011:
  2054  00093E  EFAB  F004         	goto	l2047
  2055  000942                     u1010:
  2056  000942                     
  2057                           ;main.c: 224:                 UART_Write_Text("that all of a sudden she fall down ");
  2058  000942  0EEA               	movlw	low STR_8
  2059  000944  6E37               	movwf	UART_Write_Text@text^0,c
  2060  000946  0E7C               	movlw	high STR_8
  2061  000948  6E38               	movwf	(UART_Write_Text@text+1)^0,c
  2062  00094A  EC68  F009         	call	_UART_Write_Text	;wreg free
  2063  00094E                     
  2064                           ;main.c: 225:                 check = 0;
  2065  00094E  0E00               	movlw	0
  2066  000950  6E41               	movwf	(main@check+1)^0,c
  2067  000952  0E00               	movlw	0
  2068  000954  6E40               	movwf	main@check^0,c
  2069  000956                     l2047:
  2070                           
  2071                           ;main.c: 227:             PORTD = 0b01111111;
  2072  000956  0E7F               	movlw	127
  2073  000958  6E83               	movwf	131,c	;volatile
  2074  00095A                     
  2075                           ;main.c: 228:             setBits(0,0,1,0,0,0,1,0);
  2076  00095A  0E00               	movlw	0
  2077  00095C  6E36               	movwf	setBits@b^0,c
  2078  00095E  0E01               	movlw	1
  2079  000960  6E37               	movwf	setBits@c^0,c
  2080  000962  0E00               	movlw	0
  2081  000964  6E38               	movwf	setBits@d^0,c
  2082  000966  0E00               	movlw	0
  2083  000968  6E39               	movwf	setBits@e^0,c
  2084  00096A  0E00               	movlw	0
  2085  00096C  6E3A               	movwf	setBits@f^0,c
  2086  00096E  0E01               	movlw	1
  2087  000970  6E3B               	movwf	setBits@g^0,c
  2088  000972  0E00               	movlw	0
  2089  000974  6E3C               	movwf	setBits@h^0,c
  2090  000976  0E00               	movlw	0
  2091  000978  EC93  F009         	call	_setBits
  2092  00097C                     
  2093                           ;main.c: 229:             _delay((unsigned long)((30)*(200000/4000.0)));
  2094  00097C  0ED6               	movlw	214
  2095  00097E                     u1467:
  2096  00097E  D000               	nop2	
  2097  000980  D000               	nop2	
  2098  000982  2EE8               	decfsz	wreg,f,c
  2099  000984  D7FC               	bra	u1467
  2100  000986  D000               	nop2	
  2101  000988                     
  2102                           ;main.c: 230:             PORTD = 0b10111111;
  2103  000988  0EBF               	movlw	191
  2104  00098A  6E83               	movwf	131,c	;volatile
  2105  00098C                     
  2106                           ;main.c: 231:             setBits(0,0,0,1,0,1,0,0);
  2107  00098C  0E00               	movlw	0
  2108  00098E  6E36               	movwf	setBits@b^0,c
  2109  000990  0E00               	movlw	0
  2110  000992  6E37               	movwf	setBits@c^0,c
  2111  000994  0E01               	movlw	1
  2112  000996  6E38               	movwf	setBits@d^0,c
  2113  000998  0E00               	movlw	0
  2114  00099A  6E39               	movwf	setBits@e^0,c
  2115  00099C  0E01               	movlw	1
  2116  00099E  6E3A               	movwf	setBits@f^0,c
  2117  0009A0  0E00               	movlw	0
  2118  0009A2  6E3B               	movwf	setBits@g^0,c
  2119  0009A4  0E00               	movlw	0
  2120  0009A6  6E3C               	movwf	setBits@h^0,c
  2121  0009A8  0E00               	movlw	0
  2122  0009AA  EC93  F009         	call	_setBits
  2123  0009AE                     
  2124                           ;main.c: 232:             _delay((unsigned long)((30)*(200000/4000.0)));
  2125  0009AE  0ED6               	movlw	214
  2126  0009B0                     u1477:
  2127  0009B0  D000               	nop2	
  2128  0009B2  D000               	nop2	
  2129  0009B4  2EE8               	decfsz	wreg,f,c
  2130  0009B6  D7FC               	bra	u1477
  2131  0009B8  D000               	nop2	
  2132  0009BA                     
  2133                           ;main.c: 233:             PORTD = 0b11011111;
  2134  0009BA  0EDF               	movlw	223
  2135  0009BC  6E83               	movwf	131,c	;volatile
  2136  0009BE                     
  2137                           ;main.c: 234:             setBits(0,0,0,0,1,0,0,0);
  2138  0009BE  0E00               	movlw	0
  2139  0009C0  6E36               	movwf	setBits@b^0,c
  2140  0009C2  0E00               	movlw	0
  2141  0009C4  6E37               	movwf	setBits@c^0,c
  2142  0009C6  0E00               	movlw	0
  2143  0009C8  6E38               	movwf	setBits@d^0,c
  2144  0009CA  0E01               	movlw	1
  2145  0009CC  6E39               	movwf	setBits@e^0,c
  2146  0009CE  0E00               	movlw	0
  2147  0009D0  6E3A               	movwf	setBits@f^0,c
  2148  0009D2  0E00               	movlw	0
  2149  0009D4  6E3B               	movwf	setBits@g^0,c
  2150  0009D6  0E00               	movlw	0
  2151  0009D8  6E3C               	movwf	setBits@h^0,c
  2152  0009DA  0E00               	movlw	0
  2153  0009DC  EC93  F009         	call	_setBits
  2154  0009E0                     
  2155                           ;main.c: 235:             _delay((unsigned long)((30)*(200000/4000.0)));
  2156  0009E0  0ED6               	movlw	214
  2157  0009E2                     u1487:
  2158  0009E2  D000               	nop2	
  2159  0009E4  D000               	nop2	
  2160  0009E6  2EE8               	decfsz	wreg,f,c
  2161  0009E8  D7FC               	bra	u1487
  2162  0009EA  D000               	nop2	
  2163  0009EC                     
  2164                           ;main.c: 236:             PORTD = 0b11101111;
  2165  0009EC  0EEF               	movlw	239
  2166  0009EE  6E83               	movwf	131,c	;volatile
  2167  0009F0                     
  2168                           ;main.c: 237:             setBits(0,0,0,1,1,1,0,0);
  2169  0009F0  0E00               	movlw	0
  2170  0009F2  6E36               	movwf	setBits@b^0,c
  2171  0009F4  0E00               	movlw	0
  2172  0009F6  6E37               	movwf	setBits@c^0,c
  2173  0009F8  0E01               	movlw	1
  2174  0009FA  6E38               	movwf	setBits@d^0,c
  2175  0009FC  0E01               	movlw	1
  2176  0009FE  6E39               	movwf	setBits@e^0,c
  2177  000A00  0E01               	movlw	1
  2178  000A02  6E3A               	movwf	setBits@f^0,c
  2179  000A04  0E00               	movlw	0
  2180  000A06  6E3B               	movwf	setBits@g^0,c
  2181  000A08  0E00               	movlw	0
  2182  000A0A  6E3C               	movwf	setBits@h^0,c
  2183  000A0C  0E00               	movlw	0
  2184  000A0E  EC93  F009         	call	_setBits
  2185  000A12                     
  2186                           ;main.c: 238:             _delay((unsigned long)((30)*(200000/4000.0)));
  2187  000A12  0ED6               	movlw	214
  2188  000A14                     u1497:
  2189  000A14  D000               	nop2	
  2190  000A16  D000               	nop2	
  2191  000A18  2EE8               	decfsz	wreg,f,c
  2192  000A1A  D7FC               	bra	u1497
  2193  000A1C  D000               	nop2	
  2194  000A1E                     
  2195                           ;main.c: 239:             PORTD = 0b11110111;
  2196  000A1E  0EF7               	movlw	247
  2197  000A20  6E83               	movwf	131,c	;volatile
  2198  000A22                     
  2199                           ;main.c: 240:             setBits(0,0,1,0,1,0,1,0);
  2200  000A22  0E00               	movlw	0
  2201  000A24  6E36               	movwf	setBits@b^0,c
  2202  000A26  0E01               	movlw	1
  2203  000A28  6E37               	movwf	setBits@c^0,c
  2204  000A2A  0E00               	movlw	0
  2205  000A2C  6E38               	movwf	setBits@d^0,c
  2206  000A2E  0E01               	movlw	1
  2207  000A30  6E39               	movwf	setBits@e^0,c
  2208  000A32  0E00               	movlw	0
  2209  000A34  6E3A               	movwf	setBits@f^0,c
  2210  000A36  0E01               	movlw	1
  2211  000A38  6E3B               	movwf	setBits@g^0,c
  2212  000A3A  0E00               	movlw	0
  2213  000A3C  6E3C               	movwf	setBits@h^0,c
  2214  000A3E  0E00               	movlw	0
  2215  000A40  EC93  F009         	call	_setBits
  2216  000A44                     
  2217                           ;main.c: 241:             _delay((unsigned long)((30)*(200000/4000.0)));
  2218  000A44  0ED6               	movlw	214
  2219  000A46                     u1507:
  2220  000A46  D000               	nop2	
  2221  000A48  D000               	nop2	
  2222  000A4A  2EE8               	decfsz	wreg,f,c
  2223  000A4C  D7FC               	bra	u1507
  2224  000A4E  D000               	nop2	
  2225  000A50                     
  2226                           ;main.c: 242:             PORTD = 0b11111011;
  2227  000A50  0EFB               	movlw	251
  2228  000A52  6E83               	movwf	131,c	;volatile
  2229  000A54                     
  2230                           ;main.c: 243:             setBits(0,0,0,1,1,1,0,0);
  2231  000A54  0E00               	movlw	0
  2232  000A56  6E36               	movwf	setBits@b^0,c
  2233  000A58  0E00               	movlw	0
  2234  000A5A  6E37               	movwf	setBits@c^0,c
  2235  000A5C  0E01               	movlw	1
  2236  000A5E  6E38               	movwf	setBits@d^0,c
  2237  000A60  0E01               	movlw	1
  2238  000A62  6E39               	movwf	setBits@e^0,c
  2239  000A64  0E01               	movlw	1
  2240  000A66  6E3A               	movwf	setBits@f^0,c
  2241  000A68  0E00               	movlw	0
  2242  000A6A  6E3B               	movwf	setBits@g^0,c
  2243  000A6C  0E00               	movlw	0
  2244  000A6E  6E3C               	movwf	setBits@h^0,c
  2245  000A70  0E00               	movlw	0
  2246  000A72  EC93  F009         	call	_setBits
  2247  000A76                     
  2248                           ;main.c: 244:             _delay((unsigned long)((30)*(200000/4000.0)));
  2249  000A76  0ED6               	movlw	214
  2250  000A78                     u1517:
  2251  000A78  D000               	nop2	
  2252  000A7A  D000               	nop2	
  2253  000A7C  2EE8               	decfsz	wreg,f,c
  2254  000A7E  D7FC               	bra	u1517
  2255  000A80  D000               	nop2	
  2256  000A82                     
  2257                           ;main.c: 245:             PORTD = 0b11111101;
  2258  000A82  0EFD               	movlw	253
  2259  000A84  6E83               	movwf	131,c	;volatile
  2260  000A86                     
  2261                           ;main.c: 246:             setBits(0,0,0,1,1,1,0,0);
  2262  000A86  0E00               	movlw	0
  2263  000A88  6E36               	movwf	setBits@b^0,c
  2264  000A8A  0E00               	movlw	0
  2265  000A8C  6E37               	movwf	setBits@c^0,c
  2266  000A8E  0E01               	movlw	1
  2267  000A90  6E38               	movwf	setBits@d^0,c
  2268  000A92  0E01               	movlw	1
  2269  000A94  6E39               	movwf	setBits@e^0,c
  2270  000A96  0E01               	movlw	1
  2271  000A98  6E3A               	movwf	setBits@f^0,c
  2272  000A9A  0E00               	movlw	0
  2273  000A9C  6E3B               	movwf	setBits@g^0,c
  2274  000A9E  0E00               	movlw	0
  2275  000AA0  6E3C               	movwf	setBits@h^0,c
  2276  000AA2  0E00               	movlw	0
  2277  000AA4  EC93  F009         	call	_setBits
  2278  000AA8                     
  2279                           ;main.c: 247:             _delay((unsigned long)((30)*(200000/4000.0)));
  2280  000AA8  0ED6               	movlw	214
  2281  000AAA                     u1527:
  2282  000AAA  D000               	nop2	
  2283  000AAC  D000               	nop2	
  2284  000AAE  2EE8               	decfsz	wreg,f,c
  2285  000AB0  D7FC               	bra	u1527
  2286  000AB2  D000               	nop2	
  2287  000AB4                     
  2288                           ;main.c: 248:             PORTD = 0b11111110;
  2289  000AB4  0EFE               	movlw	254
  2290  000AB6  6E83               	movwf	131,c	;volatile
  2291  000AB8                     
  2292                           ;main.c: 249:             setBits(0,0,0,1,1,1,0,0);
  2293  000AB8  0E00               	movlw	0
  2294  000ABA  6E36               	movwf	setBits@b^0,c
  2295  000ABC  0E00               	movlw	0
  2296  000ABE  6E37               	movwf	setBits@c^0,c
  2297  000AC0  0E01               	movlw	1
  2298  000AC2  6E38               	movwf	setBits@d^0,c
  2299  000AC4  0E01               	movlw	1
  2300  000AC6  6E39               	movwf	setBits@e^0,c
  2301  000AC8  0E01               	movlw	1
  2302  000ACA  6E3A               	movwf	setBits@f^0,c
  2303  000ACC  0E00               	movlw	0
  2304  000ACE  6E3B               	movwf	setBits@g^0,c
  2305  000AD0  0E00               	movlw	0
  2306  000AD2  6E3C               	movwf	setBits@h^0,c
  2307  000AD4  0E00               	movlw	0
  2308  000AD6  EC93  F009         	call	_setBits
  2309  000ADA                     
  2310                           ;main.c: 250:             _delay((unsigned long)((10)*(200000/4000.0)));
  2311  000ADA  0EA6               	movlw	166
  2312  000ADC                     u1537:
  2313  000ADC  2EE8               	decfsz	wreg,f,c
  2314  000ADE  D7FE               	bra	u1537
  2315  000AE0  D000               	nop2	
  2316                           
  2317                           ;main.c: 251:         }
  2318  000AE2  EF58  F000         	goto	l1777
  2319  000AE6                     l2095:
  2320  000AE6  5043               	movf	(main@x+1)^0,w,c
  2321  000AE8  E109               	bnz	u1020
  2322  000AEA  0E8A               	movlw	138
  2323  000AEC  5C42               	subwf	main@x^0,w,c
  2324  000AEE  A0D8               	btfss	status,0,c
  2325  000AF0  EF7C  F005         	goto	u1021
  2326  000AF4  EF7E  F005         	goto	u1020
  2327  000AF8                     u1021:
  2328  000AF8  EF47  F006         	goto	l2147
  2329  000AFC                     u1020:
  2330  000AFC  5043               	movf	(main@x+1)^0,w,c
  2331  000AFE  E107               	bnz	u1031
  2332  000B00  0EA1               	movlw	161
  2333  000B02  5C42               	subwf	main@x^0,w,c
  2334  000B04  B0D8               	btfsc	status,0,c
  2335  000B06  EF87  F005         	goto	u1031
  2336  000B0A  EF89  F005         	goto	u1030
  2337  000B0E                     u1031:
  2338  000B0E  EF47  F006         	goto	l2147
  2339  000B12                     u1030:
  2340  000B12                     
  2341                           ;main.c: 253:             if(check == 0) {
  2342  000B12  5040               	movf	main@check^0,w,c
  2343  000B14  1041               	iorwf	(main@check+1)^0,w,c
  2344  000B16  A4D8               	btfss	status,2,c
  2345  000B18  EF90  F005         	goto	u1041
  2346  000B1C  EF92  F005         	goto	u1040
  2347  000B20                     u1041:
  2348  000B20  EF9C  F005         	goto	l2105
  2349  000B24                     u1040:
  2350  000B24                     
  2351                           ;main.c: 254:                 UART_Write_Text("at the same time the drink ");
  2352  000B24  0E31               	movlw	low STR_9
  2353  000B26  6E37               	movwf	UART_Write_Text@text^0,c
  2354  000B28  0E7D               	movlw	high STR_9
  2355  000B2A  6E38               	movwf	(UART_Write_Text@text+1)^0,c
  2356  000B2C  EC68  F009         	call	_UART_Write_Text	;wreg free
  2357  000B30                     
  2358                           ;main.c: 255:                 check = 1;
  2359  000B30  0E00               	movlw	0
  2360  000B32  6E41               	movwf	(main@check+1)^0,c
  2361  000B34  0E01               	movlw	1
  2362  000B36  6E40               	movwf	main@check^0,c
  2363  000B38                     l2105:
  2364                           
  2365                           ;main.c: 257:             PORTD = 0b01111111;
  2366  000B38  0E7F               	movlw	127
  2367  000B3A  6E83               	movwf	131,c	;volatile
  2368  000B3C                     
  2369                           ;main.c: 258:             setBits(0,0,0,0,0,0,0,0);
  2370  000B3C  0E00               	movlw	0
  2371  000B3E  6E36               	movwf	setBits@b^0,c
  2372  000B40  0E00               	movlw	0
  2373  000B42  6E37               	movwf	setBits@c^0,c
  2374  000B44  0E00               	movlw	0
  2375  000B46  6E38               	movwf	setBits@d^0,c
  2376  000B48  0E00               	movlw	0
  2377  000B4A  6E39               	movwf	setBits@e^0,c
  2378  000B4C  0E00               	movlw	0
  2379  000B4E  6E3A               	movwf	setBits@f^0,c
  2380  000B50  0E00               	movlw	0
  2381  000B52  6E3B               	movwf	setBits@g^0,c
  2382  000B54  0E00               	movlw	0
  2383  000B56  6E3C               	movwf	setBits@h^0,c
  2384  000B58  0E00               	movlw	0
  2385  000B5A  EC93  F009         	call	_setBits
  2386  000B5E                     
  2387                           ;main.c: 259:             _delay((unsigned long)((30)*(200000/4000.0)));
  2388  000B5E  0ED6               	movlw	214
  2389  000B60                     u1547:
  2390  000B60  D000               	nop2	
  2391  000B62  D000               	nop2	
  2392  000B64  2EE8               	decfsz	wreg,f,c
  2393  000B66  D7FC               	bra	u1547
  2394  000B68  D000               	nop2	
  2395  000B6A                     
  2396                           ;main.c: 260:             PORTD = 0b10111111;
  2397  000B6A  0EBF               	movlw	191
  2398  000B6C  6E83               	movwf	131,c	;volatile
  2399  000B6E                     
  2400                           ;main.c: 261:             setBits(0,0,1,1,0,0,0,0);
  2401  000B6E  0E00               	movlw	0
  2402  000B70  6E36               	movwf	setBits@b^0,c
  2403  000B72  0E01               	movlw	1
  2404  000B74  6E37               	movwf	setBits@c^0,c
  2405  000B76  0E01               	movlw	1
  2406  000B78  6E38               	movwf	setBits@d^0,c
  2407  000B7A  0E00               	movlw	0
  2408  000B7C  6E39               	movwf	setBits@e^0,c
  2409  000B7E  0E00               	movlw	0
  2410  000B80  6E3A               	movwf	setBits@f^0,c
  2411  000B82  0E00               	movlw	0
  2412  000B84  6E3B               	movwf	setBits@g^0,c
  2413  000B86  0E00               	movlw	0
  2414  000B88  6E3C               	movwf	setBits@h^0,c
  2415  000B8A  0E00               	movlw	0
  2416  000B8C  EC93  F009         	call	_setBits
  2417  000B90                     
  2418                           ;main.c: 262:             _delay((unsigned long)((30)*(200000/4000.0)));
  2419  000B90  0ED6               	movlw	214
  2420  000B92                     u1557:
  2421  000B92  D000               	nop2	
  2422  000B94  D000               	nop2	
  2423  000B96  2EE8               	decfsz	wreg,f,c
  2424  000B98  D7FC               	bra	u1557
  2425  000B9A  D000               	nop2	
  2426  000B9C                     
  2427                           ;main.c: 263:             PORTD = 0b11001111;
  2428  000B9C  0ECF               	movlw	207
  2429  000B9E  6E83               	movwf	131,c	;volatile
  2430  000BA0                     
  2431                           ;main.c: 264:             setBits(0,0,1,1,1,1,1,1);
  2432  000BA0  0E00               	movlw	0
  2433  000BA2  6E36               	movwf	setBits@b^0,c
  2434  000BA4  0E01               	movlw	1
  2435  000BA6  6E37               	movwf	setBits@c^0,c
  2436  000BA8  0E01               	movlw	1
  2437  000BAA  6E38               	movwf	setBits@d^0,c
  2438  000BAC  0E01               	movlw	1
  2439  000BAE  6E39               	movwf	setBits@e^0,c
  2440  000BB0  0E01               	movlw	1
  2441  000BB2  6E3A               	movwf	setBits@f^0,c
  2442  000BB4  0E01               	movlw	1
  2443  000BB6  6E3B               	movwf	setBits@g^0,c
  2444  000BB8  0E01               	movlw	1
  2445  000BBA  6E3C               	movwf	setBits@h^0,c
  2446  000BBC  0E00               	movlw	0
  2447  000BBE  EC93  F009         	call	_setBits
  2448  000BC2                     
  2449                           ;main.c: 265:             _delay((unsigned long)((30)*(200000/4000.0)));
  2450  000BC2  0ED6               	movlw	214
  2451  000BC4                     u1567:
  2452  000BC4  D000               	nop2	
  2453  000BC6  D000               	nop2	
  2454  000BC8  2EE8               	decfsz	wreg,f,c
  2455  000BCA  D7FC               	bra	u1567
  2456  000BCC  D000               	nop2	
  2457  000BCE                     
  2458                           ;main.c: 266:             PORTD = 0b11110111;
  2459  000BCE  0EF7               	movlw	247
  2460  000BD0  6E83               	movwf	131,c	;volatile
  2461  000BD2                     
  2462                           ;main.c: 267:             setBits(1,1,1,1,1,1,1,1);
  2463  000BD2  0E01               	movlw	1
  2464  000BD4  6E36               	movwf	setBits@b^0,c
  2465  000BD6  0E01               	movlw	1
  2466  000BD8  6E37               	movwf	setBits@c^0,c
  2467  000BDA  0E01               	movlw	1
  2468  000BDC  6E38               	movwf	setBits@d^0,c
  2469  000BDE  0E01               	movlw	1
  2470  000BE0  6E39               	movwf	setBits@e^0,c
  2471  000BE2  0E01               	movlw	1
  2472  000BE4  6E3A               	movwf	setBits@f^0,c
  2473  000BE6  0E01               	movlw	1
  2474  000BE8  6E3B               	movwf	setBits@g^0,c
  2475  000BEA  0E01               	movlw	1
  2476  000BEC  6E3C               	movwf	setBits@h^0,c
  2477  000BEE  0E01               	movlw	1
  2478  000BF0  EC93  F009         	call	_setBits
  2479  000BF4                     
  2480                           ;main.c: 268:             _delay((unsigned long)((30)*(200000/4000.0)));
  2481  000BF4  0ED6               	movlw	214
  2482  000BF6                     u1577:
  2483  000BF6  D000               	nop2	
  2484  000BF8  D000               	nop2	
  2485  000BFA  2EE8               	decfsz	wreg,f,c
  2486  000BFC  D7FC               	bra	u1577
  2487  000BFE  D000               	nop2	
  2488  000C00                     
  2489                           ;main.c: 269:             PORTD = 0b11111011;
  2490  000C00  0EFB               	movlw	251
  2491  000C02  6E83               	movwf	131,c	;volatile
  2492  000C04                     
  2493                           ;main.c: 270:             setBits(1,0,1,1,1,1,1,1);
  2494  000C04  0E00               	movlw	0
  2495  000C06  6E36               	movwf	setBits@b^0,c
  2496  000C08  0E01               	movlw	1
  2497  000C0A  6E37               	movwf	setBits@c^0,c
  2498  000C0C  0E01               	movlw	1
  2499  000C0E  6E38               	movwf	setBits@d^0,c
  2500  000C10  0E01               	movlw	1
  2501  000C12  6E39               	movwf	setBits@e^0,c
  2502  000C14  0E01               	movlw	1
  2503  000C16  6E3A               	movwf	setBits@f^0,c
  2504  000C18  0E01               	movlw	1
  2505  000C1A  6E3B               	movwf	setBits@g^0,c
  2506  000C1C  0E01               	movlw	1
  2507  000C1E  6E3C               	movwf	setBits@h^0,c
  2508  000C20  0E01               	movlw	1
  2509  000C22  EC93  F009         	call	_setBits
  2510  000C26                     
  2511                           ;main.c: 271:             _delay((unsigned long)((30)*(200000/4000.0)));
  2512  000C26  0ED6               	movlw	214
  2513  000C28                     u1587:
  2514  000C28  D000               	nop2	
  2515  000C2A  D000               	nop2	
  2516  000C2C  2EE8               	decfsz	wreg,f,c
  2517  000C2E  D7FC               	bra	u1587
  2518  000C30  D000               	nop2	
  2519  000C32                     
  2520                           ;main.c: 272:             PORTD = 0b11111101;
  2521  000C32  0EFD               	movlw	253
  2522  000C34  6E83               	movwf	131,c	;volatile
  2523  000C36                     
  2524                           ;main.c: 273:             setBits(1,0,1,1,0,0,0,0);
  2525  000C36  0E00               	movlw	0
  2526  000C38  6E36               	movwf	setBits@b^0,c
  2527  000C3A  0E01               	movlw	1
  2528  000C3C  6E37               	movwf	setBits@c^0,c
  2529  000C3E  0E01               	movlw	1
  2530  000C40  6E38               	movwf	setBits@d^0,c
  2531  000C42  0E00               	movlw	0
  2532  000C44  6E39               	movwf	setBits@e^0,c
  2533  000C46  0E00               	movlw	0
  2534  000C48  6E3A               	movwf	setBits@f^0,c
  2535  000C4A  0E00               	movlw	0
  2536  000C4C  6E3B               	movwf	setBits@g^0,c
  2537  000C4E  0E00               	movlw	0
  2538  000C50  6E3C               	movwf	setBits@h^0,c
  2539  000C52  0E01               	movlw	1
  2540  000C54  EC93  F009         	call	_setBits
  2541  000C58                     
  2542                           ;main.c: 274:             _delay((unsigned long)((30)*(200000/4000.0)));
  2543  000C58  0ED6               	movlw	214
  2544  000C5A                     u1597:
  2545  000C5A  D000               	nop2	
  2546  000C5C  D000               	nop2	
  2547  000C5E  2EE8               	decfsz	wreg,f,c
  2548  000C60  D7FC               	bra	u1597
  2549  000C62  D000               	nop2	
  2550  000C64                     
  2551                           ;main.c: 275:             PORTD = 0b11111110;
  2552  000C64  0EFE               	movlw	254
  2553  000C66  6E83               	movwf	131,c	;volatile
  2554  000C68                     
  2555                           ;main.c: 276:             setBits(0,0,0,0,0,0,0,0);
  2556  000C68  0E00               	movlw	0
  2557  000C6A  6E36               	movwf	setBits@b^0,c
  2558  000C6C  0E00               	movlw	0
  2559  000C6E  6E37               	movwf	setBits@c^0,c
  2560  000C70  0E00               	movlw	0
  2561  000C72  6E38               	movwf	setBits@d^0,c
  2562  000C74  0E00               	movlw	0
  2563  000C76  6E39               	movwf	setBits@e^0,c
  2564  000C78  0E00               	movlw	0
  2565  000C7A  6E3A               	movwf	setBits@f^0,c
  2566  000C7C  0E00               	movlw	0
  2567  000C7E  6E3B               	movwf	setBits@g^0,c
  2568  000C80  0E00               	movlw	0
  2569  000C82  6E3C               	movwf	setBits@h^0,c
  2570  000C84  0E00               	movlw	0
  2571  000C86  EC93  F009         	call	_setBits
  2572  000C8A  EF49  F002         	goto	l1897
  2573  000C8E                     l2147:
  2574  000C8E  5043               	movf	(main@x+1)^0,w,c
  2575  000C90  E109               	bnz	u1050
  2576  000C92  0EA1               	movlw	161
  2577  000C94  5C42               	subwf	main@x^0,w,c
  2578  000C96  A0D8               	btfss	status,0,c
  2579  000C98  EF50  F006         	goto	u1051
  2580  000C9C  EF52  F006         	goto	u1050
  2581  000CA0                     u1051:
  2582  000CA0  EFD0  F006         	goto	l2181
  2583  000CA4                     u1050:
  2584  000CA4  5043               	movf	(main@x+1)^0,w,c
  2585  000CA6  E107               	bnz	u1061
  2586  000CA8  0EB8               	movlw	184
  2587  000CAA  5C42               	subwf	main@x^0,w,c
  2588  000CAC  B0D8               	btfsc	status,0,c
  2589  000CAE  EF5B  F006         	goto	u1061
  2590  000CB2  EF5D  F006         	goto	u1060
  2591  000CB6                     u1061:
  2592  000CB6  EFD0  F006         	goto	l2181
  2593  000CBA                     u1060:
  2594  000CBA                     
  2595                           ;main.c: 280:             if(check == 1) {
  2596  000CBA  0440               	decf	main@check^0,w,c
  2597  000CBC  1041               	iorwf	(main@check+1)^0,w,c
  2598  000CBE  A4D8               	btfss	status,2,c
  2599  000CC0  EF64  F006         	goto	u1071
  2600  000CC4  EF66  F006         	goto	u1070
  2601  000CC8                     u1071:
  2602  000CC8  EF70  F006         	goto	l2157
  2603  000CCC                     u1070:
  2604  000CCC                     
  2605                           ;main.c: 281:                 UART_Write_Text("is split, ");
  2606  000CCC  0EA4               	movlw	low STR_10
  2607  000CCE  6E37               	movwf	UART_Write_Text@text^0,c
  2608  000CD0  0E7D               	movlw	high STR_10
  2609  000CD2  6E38               	movwf	(UART_Write_Text@text+1)^0,c
  2610  000CD4  EC68  F009         	call	_UART_Write_Text	;wreg free
  2611  000CD8                     
  2612                           ;main.c: 282:                 check = 0;
  2613  000CD8  0E00               	movlw	0
  2614  000CDA  6E41               	movwf	(main@check+1)^0,c
  2615  000CDC  0E00               	movlw	0
  2616  000CDE  6E40               	movwf	main@check^0,c
  2617  000CE0                     l2157:
  2618                           
  2619                           ;main.c: 284:             PORTD = 0b10111101;
  2620  000CE0  0EBD               	movlw	189
  2621  000CE2  6E83               	movwf	131,c	;volatile
  2622  000CE4                     
  2623                           ;main.c: 285:             setBits(0,1,0,0,0,0,1,0);
  2624  000CE4  0E01               	movlw	1
  2625  000CE6  6E36               	movwf	setBits@b^0,c
  2626  000CE8  0E00               	movlw	0
  2627  000CEA  6E37               	movwf	setBits@c^0,c
  2628  000CEC  0E00               	movlw	0
  2629  000CEE  6E38               	movwf	setBits@d^0,c
  2630  000CF0  0E00               	movlw	0
  2631  000CF2  6E39               	movwf	setBits@e^0,c
  2632  000CF4  0E00               	movlw	0
  2633  000CF6  6E3A               	movwf	setBits@f^0,c
  2634  000CF8  0E01               	movlw	1
  2635  000CFA  6E3B               	movwf	setBits@g^0,c
  2636  000CFC  0E00               	movlw	0
  2637  000CFE  6E3C               	movwf	setBits@h^0,c
  2638  000D00  0E00               	movlw	0
  2639  000D02  EC93  F009         	call	_setBits
  2640  000D06                     
  2641                           ;main.c: 286:             _delay((unsigned long)((30)*(200000/4000.0)));
  2642  000D06  0ED6               	movlw	214
  2643  000D08                     u1607:
  2644  000D08  D000               	nop2	
  2645  000D0A  D000               	nop2	
  2646  000D0C  2EE8               	decfsz	wreg,f,c
  2647  000D0E  D7FC               	bra	u1607
  2648  000D10  D000               	nop2	
  2649  000D12                     
  2650                           ;main.c: 287:             PORTD = 0b11011011;
  2651  000D12  0EDB               	movlw	219
  2652  000D14  6E83               	movwf	131,c	;volatile
  2653  000D16                     
  2654                           ;main.c: 288:             setBits(0,0,1,0,0,1,0,0);
  2655  000D16  0E00               	movlw	0
  2656  000D18  6E36               	movwf	setBits@b^0,c
  2657  000D1A  0E01               	movlw	1
  2658  000D1C  6E37               	movwf	setBits@c^0,c
  2659  000D1E  0E00               	movlw	0
  2660  000D20  6E38               	movwf	setBits@d^0,c
  2661  000D22  0E00               	movlw	0
  2662  000D24  6E39               	movwf	setBits@e^0,c
  2663  000D26  0E01               	movlw	1
  2664  000D28  6E3A               	movwf	setBits@f^0,c
  2665  000D2A  0E00               	movlw	0
  2666  000D2C  6E3B               	movwf	setBits@g^0,c
  2667  000D2E  0E00               	movlw	0
  2668  000D30  6E3C               	movwf	setBits@h^0,c
  2669  000D32  0E00               	movlw	0
  2670  000D34  EC93  F009         	call	_setBits
  2671  000D38                     
  2672                           ;main.c: 289:             _delay((unsigned long)((30)*(200000/4000.0)));
  2673  000D38  0ED6               	movlw	214
  2674  000D3A                     u1617:
  2675  000D3A  D000               	nop2	
  2676  000D3C  D000               	nop2	
  2677  000D3E  2EE8               	decfsz	wreg,f,c
  2678  000D40  D7FC               	bra	u1617
  2679  000D42  D000               	nop2	
  2680  000D44                     
  2681                           ;main.c: 290:             PORTD = 0b11100111;
  2682  000D44  0EE7               	movlw	231
  2683  000D46  6E83               	movwf	131,c	;volatile
  2684  000D48                     
  2685                           ;main.c: 291:             setBits(0,0,0,1,1,0,0,0);
  2686  000D48  0E00               	movlw	0
  2687  000D4A  6E36               	movwf	setBits@b^0,c
  2688  000D4C  0E00               	movlw	0
  2689  000D4E  6E37               	movwf	setBits@c^0,c
  2690  000D50  0E01               	movlw	1
  2691  000D52  6E38               	movwf	setBits@d^0,c
  2692  000D54  0E01               	movlw	1
  2693  000D56  6E39               	movwf	setBits@e^0,c
  2694  000D58  0E00               	movlw	0
  2695  000D5A  6E3A               	movwf	setBits@f^0,c
  2696  000D5C  0E00               	movlw	0
  2697  000D5E  6E3B               	movwf	setBits@g^0,c
  2698  000D60  0E00               	movlw	0
  2699  000D62  6E3C               	movwf	setBits@h^0,c
  2700  000D64  0E00               	movlw	0
  2701  000D66  EC93  F009         	call	_setBits
  2702  000D6A                     
  2703                           ;main.c: 292:             _delay((unsigned long)((30)*(200000/4000.0)));
  2704  000D6A  0ED6               	movlw	214
  2705  000D6C                     u1627:
  2706  000D6C  D000               	nop2	
  2707  000D6E  D000               	nop2	
  2708  000D70  2EE8               	decfsz	wreg,f,c
  2709  000D72  D7FC               	bra	u1627
  2710  000D74  D000               	nop2	
  2711  000D76                     
  2712                           ;main.c: 293:             PORTD = 0b01111110;
  2713  000D76  0E7E               	movlw	126
  2714  000D78  6E83               	movwf	131,c	;volatile
  2715  000D7A                     
  2716                           ;main.c: 294:             setBits(1,0,0,0,0,0,0,1);
  2717  000D7A  0E00               	movlw	0
  2718  000D7C  6E36               	movwf	setBits@b^0,c
  2719  000D7E  0E00               	movlw	0
  2720  000D80  6E37               	movwf	setBits@c^0,c
  2721  000D82  0E00               	movlw	0
  2722  000D84  6E38               	movwf	setBits@d^0,c
  2723  000D86  0E00               	movlw	0
  2724  000D88  6E39               	movwf	setBits@e^0,c
  2725  000D8A  0E00               	movlw	0
  2726  000D8C  6E3A               	movwf	setBits@f^0,c
  2727  000D8E  0E00               	movlw	0
  2728  000D90  6E3B               	movwf	setBits@g^0,c
  2729  000D92  0E01               	movlw	1
  2730  000D94  6E3C               	movwf	setBits@h^0,c
  2731  000D96  0E01               	movlw	1
  2732  000D98  EC93  F009         	call	_setBits
  2733  000D9C  EF49  F002         	goto	l1897
  2734  000DA0                     l2181:
  2735  000DA0  5043               	movf	(main@x+1)^0,w,c
  2736  000DA2  E109               	bnz	u1080
  2737  000DA4  0EB8               	movlw	184
  2738  000DA6  5C42               	subwf	main@x^0,w,c
  2739  000DA8  A0D8               	btfss	status,0,c
  2740  000DAA  EFD9  F006         	goto	u1081
  2741  000DAE  EFDB  F006         	goto	u1080
  2742  000DB2                     u1081:
  2743  000DB2  EF72  F007         	goto	l2221
  2744  000DB6                     u1080:
  2745  000DB6  5043               	movf	(main@x+1)^0,w,c
  2746  000DB8  E107               	bnz	u1091
  2747  000DBA  0ED2               	movlw	210
  2748  000DBC  5C42               	subwf	main@x^0,w,c
  2749  000DBE  B0D8               	btfsc	status,0,c
  2750  000DC0  EFE4  F006         	goto	u1091
  2751  000DC4  EFE6  F006         	goto	u1090
  2752  000DC8                     u1091:
  2753  000DC8  EF72  F007         	goto	l2221
  2754  000DCC                     u1090:
  2755  000DCC                     
  2756                           ;main.c: 298:             if(check == 0) {
  2757  000DCC  5040               	movf	main@check^0,w,c
  2758  000DCE  1041               	iorwf	(main@check+1)^0,w,c
  2759  000DD0  A4D8               	btfss	status,2,c
  2760  000DD2  EFED  F006         	goto	u1101
  2761  000DD6  EFEF  F006         	goto	u1100
  2762  000DDA                     u1101:
  2763  000DDA  EFF9  F006         	goto	l2191
  2764  000DDE                     u1100:
  2765  000DDE                     
  2766                           ;main.c: 299:                 UART_Write_Text("she was so sad QQ, ");
  2767  000DDE  0E7C               	movlw	low STR_11
  2768  000DE0  6E37               	movwf	UART_Write_Text@text^0,c
  2769  000DE2  0E7D               	movlw	high STR_11
  2770  000DE4  6E38               	movwf	(UART_Write_Text@text+1)^0,c
  2771  000DE6  EC68  F009         	call	_UART_Write_Text	;wreg free
  2772  000DEA                     
  2773                           ;main.c: 300:                 check = 1;
  2774  000DEA  0E00               	movlw	0
  2775  000DEC  6E41               	movwf	(main@check+1)^0,c
  2776  000DEE  0E01               	movlw	1
  2777  000DF0  6E40               	movwf	main@check^0,c
  2778  000DF2                     l2191:
  2779                           
  2780                           ;main.c: 302:             PORTD = 0b01111110;
  2781  000DF2  0E7E               	movlw	126
  2782  000DF4  6E83               	movwf	131,c	;volatile
  2783  000DF6                     
  2784                           ;main.c: 303:             setBits(0,0,1,1,1,1,0,0);
  2785  000DF6  0E00               	movlw	0
  2786  000DF8  6E36               	movwf	setBits@b^0,c
  2787  000DFA  0E01               	movlw	1
  2788  000DFC  6E37               	movwf	setBits@c^0,c
  2789  000DFE  0E01               	movlw	1
  2790  000E00  6E38               	movwf	setBits@d^0,c
  2791  000E02  0E01               	movlw	1
  2792  000E04  6E39               	movwf	setBits@e^0,c
  2793  000E06  0E01               	movlw	1
  2794  000E08  6E3A               	movwf	setBits@f^0,c
  2795  000E0A  0E00               	movlw	0
  2796  000E0C  6E3B               	movwf	setBits@g^0,c
  2797  000E0E  0E00               	movlw	0
  2798  000E10  6E3C               	movwf	setBits@h^0,c
  2799  000E12  0E00               	movlw	0
  2800  000E14  EC93  F009         	call	_setBits
  2801  000E18                     
  2802                           ;main.c: 304:             _delay((unsigned long)((30)*(200000/4000.0)));
  2803  000E18  0ED6               	movlw	214
  2804  000E1A                     u1637:
  2805  000E1A  D000               	nop2	
  2806  000E1C  D000               	nop2	
  2807  000E1E  2EE8               	decfsz	wreg,f,c
  2808  000E20  D7FC               	bra	u1637
  2809  000E22  D000               	nop2	
  2810  000E24                     
  2811                           ;main.c: 305:             PORTD = 0b10111101;
  2812  000E24  0EBD               	movlw	189
  2813  000E26  6E83               	movwf	131,c	;volatile
  2814  000E28                     
  2815                           ;main.c: 306:             setBits(0,1,0,0,0,0,1,0);
  2816  000E28  0E01               	movlw	1
  2817  000E2A  6E36               	movwf	setBits@b^0,c
  2818  000E2C  0E00               	movlw	0
  2819  000E2E  6E37               	movwf	setBits@c^0,c
  2820  000E30  0E00               	movlw	0
  2821  000E32  6E38               	movwf	setBits@d^0,c
  2822  000E34  0E00               	movlw	0
  2823  000E36  6E39               	movwf	setBits@e^0,c
  2824  000E38  0E00               	movlw	0
  2825  000E3A  6E3A               	movwf	setBits@f^0,c
  2826  000E3C  0E01               	movlw	1
  2827  000E3E  6E3B               	movwf	setBits@g^0,c
  2828  000E40  0E00               	movlw	0
  2829  000E42  6E3C               	movwf	setBits@h^0,c
  2830  000E44  0E00               	movlw	0
  2831  000E46  EC93  F009         	call	_setBits
  2832  000E4A                     
  2833                           ;main.c: 307:             _delay((unsigned long)((30)*(200000/4000.0)));
  2834  000E4A  0ED6               	movlw	214
  2835  000E4C                     u1647:
  2836  000E4C  D000               	nop2	
  2837  000E4E  D000               	nop2	
  2838  000E50  2EE8               	decfsz	wreg,f,c
  2839  000E52  D7FC               	bra	u1647
  2840  000E54  D000               	nop2	
  2841  000E56                     
  2842                           ;main.c: 308:             PORTD = 0b11011011;
  2843  000E56  0EDB               	movlw	219
  2844  000E58  6E83               	movwf	131,c	;volatile
  2845  000E5A                     
  2846                           ;main.c: 309:             setBits(1,0,1,0,0,1,0,1);
  2847  000E5A  0E00               	movlw	0
  2848  000E5C  6E36               	movwf	setBits@b^0,c
  2849  000E5E  0E01               	movlw	1
  2850  000E60  6E37               	movwf	setBits@c^0,c
  2851  000E62  0E00               	movlw	0
  2852  000E64  6E38               	movwf	setBits@d^0,c
  2853  000E66  0E00               	movlw	0
  2854  000E68  6E39               	movwf	setBits@e^0,c
  2855  000E6A  0E01               	movlw	1
  2856  000E6C  6E3A               	movwf	setBits@f^0,c
  2857  000E6E  0E00               	movlw	0
  2858  000E70  6E3B               	movwf	setBits@g^0,c
  2859  000E72  0E01               	movlw	1
  2860  000E74  6E3C               	movwf	setBits@h^0,c
  2861  000E76  0E01               	movlw	1
  2862  000E78  EC93  F009         	call	_setBits
  2863  000E7C                     
  2864                           ;main.c: 310:             _delay((unsigned long)((30)*(200000/4000.0)));
  2865  000E7C  0ED6               	movlw	214
  2866  000E7E                     u1657:
  2867  000E7E  D000               	nop2	
  2868  000E80  D000               	nop2	
  2869  000E82  2EE8               	decfsz	wreg,f,c
  2870  000E84  D7FC               	bra	u1657
  2871  000E86  D000               	nop2	
  2872  000E88                     
  2873                           ;main.c: 311:             PORTD = 0b11100111;
  2874  000E88  0EE7               	movlw	231
  2875  000E8A  6E83               	movwf	131,c	;volatile
  2876  000E8C                     
  2877                           ;main.c: 312:             setBits(1,0,0,0,1,0,0,1);
  2878  000E8C  0E00               	movlw	0
  2879  000E8E  6E36               	movwf	setBits@b^0,c
  2880  000E90  0E00               	movlw	0
  2881  000E92  6E37               	movwf	setBits@c^0,c
  2882  000E94  0E00               	movlw	0
  2883  000E96  6E38               	movwf	setBits@d^0,c
  2884  000E98  0E01               	movlw	1
  2885  000E9A  6E39               	movwf	setBits@e^0,c
  2886  000E9C  0E00               	movlw	0
  2887  000E9E  6E3A               	movwf	setBits@f^0,c
  2888  000EA0  0E00               	movlw	0
  2889  000EA2  6E3B               	movwf	setBits@g^0,c
  2890  000EA4  0E01               	movlw	1
  2891  000EA6  6E3C               	movwf	setBits@h^0,c
  2892  000EA8  0E01               	movlw	1
  2893  000EAA  EC93  F009         	call	_setBits
  2894  000EAE                     
  2895                           ;main.c: 313:             _delay((unsigned long)((30)*(200000/4000.0)));
  2896  000EAE  0ED6               	movlw	214
  2897  000EB0                     u1667:
  2898  000EB0  D000               	nop2	
  2899  000EB2  D000               	nop2	
  2900  000EB4  2EE8               	decfsz	wreg,f,c
  2901  000EB6  D7FC               	bra	u1667
  2902  000EB8  D000               	nop2	
  2903  000EBA                     
  2904                           ;main.c: 314:             PORTD = 0b11011011;
  2905  000EBA  0EDB               	movlw	219
  2906  000EBC  6E83               	movwf	131,c	;volatile
  2907  000EBE                     
  2908                           ;main.c: 315:             setBits(0,0,1,0,0,0,0,0);
  2909  000EBE  0E00               	movlw	0
  2910  000EC0  6E36               	movwf	setBits@b^0,c
  2911  000EC2  0E01               	movlw	1
  2912  000EC4  6E37               	movwf	setBits@c^0,c
  2913  000EC6  0E00               	movlw	0
  2914  000EC8  6E38               	movwf	setBits@d^0,c
  2915  000ECA  0E00               	movlw	0
  2916  000ECC  6E39               	movwf	setBits@e^0,c
  2917  000ECE  0E00               	movlw	0
  2918  000ED0  6E3A               	movwf	setBits@f^0,c
  2919  000ED2  0E00               	movlw	0
  2920  000ED4  6E3B               	movwf	setBits@g^0,c
  2921  000ED6  0E00               	movlw	0
  2922  000ED8  6E3C               	movwf	setBits@h^0,c
  2923  000EDA  0E00               	movlw	0
  2924  000EDC  EC93  F009         	call	_setBits
  2925  000EE0  EF49  F002         	goto	l1897
  2926  000EE4                     l2221:
  2927  000EE4  5043               	movf	(main@x+1)^0,w,c
  2928  000EE6  E109               	bnz	u1110
  2929  000EE8  0ED2               	movlw	210
  2930  000EEA  5C42               	subwf	main@x^0,w,c
  2931  000EEC  A0D8               	btfss	status,0,c
  2932  000EEE  EF7B  F007         	goto	u1111
  2933  000EF2  EF7D  F007         	goto	u1110
  2934  000EF6                     u1111:
  2935  000EF6  EFFB  F007         	goto	l2255
  2936  000EFA                     u1110:
  2937  000EFA  5043               	movf	(main@x+1)^0,w,c
  2938  000EFC  E107               	bnz	u1121
  2939  000EFE  0EE9               	movlw	233
  2940  000F00  5C42               	subwf	main@x^0,w,c
  2941  000F02  B0D8               	btfsc	status,0,c
  2942  000F04  EF86  F007         	goto	u1121
  2943  000F08  EF88  F007         	goto	u1120
  2944  000F0C                     u1121:
  2945  000F0C  EFFB  F007         	goto	l2255
  2946  000F10                     u1120:
  2947  000F10                     
  2948                           ;main.c: 319:             if(check == 1) {
  2949  000F10  0440               	decf	main@check^0,w,c
  2950  000F12  1041               	iorwf	(main@check+1)^0,w,c
  2951  000F14  A4D8               	btfss	status,2,c
  2952  000F16  EF8F  F007         	goto	u1131
  2953  000F1A  EF91  F007         	goto	u1130
  2954  000F1E                     u1131:
  2955  000F1E  EF9B  F007         	goto	l2231
  2956  000F22                     u1130:
  2957  000F22                     
  2958                           ;main.c: 320:                 UART_Write_Text("but the salesperson told her that she was
      +                           the 101st person to split the drink here, ");
  2959  000F22  0E59               	movlw	low STR_12
  2960  000F24  6E37               	movwf	UART_Write_Text@text^0,c
  2961  000F26  0E7C               	movlw	high STR_12
  2962  000F28  6E38               	movwf	(UART_Write_Text@text+1)^0,c
  2963  000F2A  EC68  F009         	call	_UART_Write_Text	;wreg free
  2964  000F2E                     
  2965                           ;main.c: 321:                 check = 0;
  2966  000F2E  0E00               	movlw	0
  2967  000F30  6E41               	movwf	(main@check+1)^0,c
  2968  000F32  0E00               	movlw	0
  2969  000F34  6E40               	movwf	main@check^0,c
  2970  000F36                     l2231:
  2971                           
  2972                           ;main.c: 323:             PORTD = 0b01111110;
  2973  000F36  0E7E               	movlw	126
  2974  000F38  6E83               	movwf	131,c	;volatile
  2975  000F3A                     
  2976                           ;main.c: 324:             setBits(0,1,1,1,1,1,1,0);
  2977  000F3A  0E01               	movlw	1
  2978  000F3C  6E36               	movwf	setBits@b^0,c
  2979  000F3E  0E01               	movlw	1
  2980  000F40  6E37               	movwf	setBits@c^0,c
  2981  000F42  0E01               	movlw	1
  2982  000F44  6E38               	movwf	setBits@d^0,c
  2983  000F46  0E01               	movlw	1
  2984  000F48  6E39               	movwf	setBits@e^0,c
  2985  000F4A  0E01               	movlw	1
  2986  000F4C  6E3A               	movwf	setBits@f^0,c
  2987  000F4E  0E01               	movlw	1
  2988  000F50  6E3B               	movwf	setBits@g^0,c
  2989  000F52  0E00               	movlw	0
  2990  000F54  6E3C               	movwf	setBits@h^0,c
  2991  000F56  0E00               	movlw	0
  2992  000F58  EC93  F009         	call	_setBits
  2993  000F5C                     
  2994                           ;main.c: 325:             _delay((unsigned long)((30)*(200000/4000.0)));
  2995  000F5C  0ED6               	movlw	214
  2996  000F5E                     u1677:
  2997  000F5E  D000               	nop2	
  2998  000F60  D000               	nop2	
  2999  000F62  2EE8               	decfsz	wreg,f,c
  3000  000F64  D7FC               	bra	u1677
  3001  000F66  D000               	nop2	
  3002  000F68                     
  3003                           ;main.c: 326:             PORTD = 0b11011011;
  3004  000F68  0EDB               	movlw	219
  3005  000F6A  6E83               	movwf	131,c	;volatile
  3006  000F6C                     
  3007                           ;main.c: 327:             setBits(0,0,1,1,1,1,0,0);
  3008  000F6C  0E00               	movlw	0
  3009  000F6E  6E36               	movwf	setBits@b^0,c
  3010  000F70  0E01               	movlw	1
  3011  000F72  6E37               	movwf	setBits@c^0,c
  3012  000F74  0E01               	movlw	1
  3013  000F76  6E38               	movwf	setBits@d^0,c
  3014  000F78  0E01               	movlw	1
  3015  000F7A  6E39               	movwf	setBits@e^0,c
  3016  000F7C  0E01               	movlw	1
  3017  000F7E  6E3A               	movwf	setBits@f^0,c
  3018  000F80  0E00               	movlw	0
  3019  000F82  6E3B               	movwf	setBits@g^0,c
  3020  000F84  0E00               	movlw	0
  3021  000F86  6E3C               	movwf	setBits@h^0,c
  3022  000F88  0E00               	movlw	0
  3023  000F8A  EC93  F009         	call	_setBits
  3024  000F8E                     
  3025                           ;main.c: 328:             _delay((unsigned long)((30)*(200000/4000.0)));
  3026  000F8E  0ED6               	movlw	214
  3027  000F90                     u1687:
  3028  000F90  D000               	nop2	
  3029  000F92  D000               	nop2	
  3030  000F94  2EE8               	decfsz	wreg,f,c
  3031  000F96  D7FC               	bra	u1687
  3032  000F98  D000               	nop2	
  3033  000F9A                     
  3034                           ;main.c: 329:             PORTD = 0b11100111;
  3035  000F9A  0EE7               	movlw	231
  3036  000F9C  6E83               	movwf	131,c	;volatile
  3037  000F9E                     
  3038                           ;main.c: 330:             setBits(0,1,0,0,0,0,1,0);
  3039  000F9E  0E01               	movlw	1
  3040  000FA0  6E36               	movwf	setBits@b^0,c
  3041  000FA2  0E00               	movlw	0
  3042  000FA4  6E37               	movwf	setBits@c^0,c
  3043  000FA6  0E00               	movlw	0
  3044  000FA8  6E38               	movwf	setBits@d^0,c
  3045  000FAA  0E00               	movlw	0
  3046  000FAC  6E39               	movwf	setBits@e^0,c
  3047  000FAE  0E00               	movlw	0
  3048  000FB0  6E3A               	movwf	setBits@f^0,c
  3049  000FB2  0E01               	movlw	1
  3050  000FB4  6E3B               	movwf	setBits@g^0,c
  3051  000FB6  0E00               	movlw	0
  3052  000FB8  6E3C               	movwf	setBits@h^0,c
  3053  000FBA  0E00               	movlw	0
  3054  000FBC  EC93  F009         	call	_setBits
  3055  000FC0                     
  3056                           ;main.c: 331:             _delay((unsigned long)((30)*(200000/4000.0)));
  3057  000FC0  0ED6               	movlw	214
  3058  000FC2                     u1697:
  3059  000FC2  D000               	nop2	
  3060  000FC4  D000               	nop2	
  3061  000FC6  2EE8               	decfsz	wreg,f,c
  3062  000FC8  D7FC               	bra	u1697
  3063  000FCA  D000               	nop2	
  3064  000FCC                     
  3065                           ;main.c: 332:             PORTD = 0b10111101;
  3066  000FCC  0EBD               	movlw	189
  3067  000FCE  6E83               	movwf	131,c	;volatile
  3068  000FD0                     
  3069                           ;main.c: 333:             setBits(0,0,0,0,0,0,0,0);
  3070  000FD0  0E00               	movlw	0
  3071  000FD2  6E36               	movwf	setBits@b^0,c
  3072  000FD4  0E00               	movlw	0
  3073  000FD6  6E37               	movwf	setBits@c^0,c
  3074  000FD8  0E00               	movlw	0
  3075  000FDA  6E38               	movwf	setBits@d^0,c
  3076  000FDC  0E00               	movlw	0
  3077  000FDE  6E39               	movwf	setBits@e^0,c
  3078  000FE0  0E00               	movlw	0
  3079  000FE2  6E3A               	movwf	setBits@f^0,c
  3080  000FE4  0E00               	movlw	0
  3081  000FE6  6E3B               	movwf	setBits@g^0,c
  3082  000FE8  0E00               	movlw	0
  3083  000FEA  6E3C               	movwf	setBits@h^0,c
  3084  000FEC  0E00               	movlw	0
  3085  000FEE  EC93  F009         	call	_setBits
  3086  000FF2  EF49  F002         	goto	l1897
  3087  000FF6                     l2255:
  3088  000FF6  5043               	movf	(main@x+1)^0,w,c
  3089  000FF8  E109               	bnz	u1140
  3090  000FFA  0EE9               	movlw	233
  3091  000FFC  5C42               	subwf	main@x^0,w,c
  3092  000FFE  A0D8               	btfss	status,0,c
  3093  001000  EF04  F008         	goto	u1141
  3094  001004  EF06  F008         	goto	u1140
  3095  001008                     u1141:
  3096  001008  EF92  F008         	goto	l204
  3097  00100C                     u1140:
  3098  00100C                     
  3099                           ;main.c: 337:             if(check == 0) {
  3100  00100C  5040               	movf	main@check^0,w,c
  3101  00100E  1041               	iorwf	(main@check+1)^0,w,c
  3102  001010  A4D8               	btfss	status,2,c
  3103  001012  EF0D  F008         	goto	u1151
  3104  001016  EF0F  F008         	goto	u1150
  3105  00101A                     u1151:
  3106  00101A  EF19  F008         	goto	l2263
  3107  00101E                     u1150:
  3108  00101E                     
  3109                           ;main.c: 338:                 UART_Write_Text("so she got a brand new drink. > < ");
  3110  00101E  0E0E               	movlw	low STR_13
  3111  001020  6E37               	movwf	UART_Write_Text@text^0,c
  3112  001022  0E7D               	movlw	high STR_13
  3113  001024  6E38               	movwf	(UART_Write_Text@text+1)^0,c
  3114  001026  EC68  F009         	call	_UART_Write_Text	;wreg free
  3115  00102A                     
  3116                           ;main.c: 339:                 check = 1;
  3117  00102A  0E00               	movlw	0
  3118  00102C  6E41               	movwf	(main@check+1)^0,c
  3119  00102E  0E01               	movlw	1
  3120  001030  6E40               	movwf	main@check^0,c
  3121  001032                     l2263:
  3122                           
  3123                           ;main.c: 341:             PORTD = 0b01111110;
  3124  001032  0E7E               	movlw	126
  3125  001034  6E83               	movwf	131,c	;volatile
  3126  001036                     
  3127                           ;main.c: 342:             setBits(0,0,1,1,1,1,0,0);
  3128  001036  0E00               	movlw	0
  3129  001038  6E36               	movwf	setBits@b^0,c
  3130  00103A  0E01               	movlw	1
  3131  00103C  6E37               	movwf	setBits@c^0,c
  3132  00103E  0E01               	movlw	1
  3133  001040  6E38               	movwf	setBits@d^0,c
  3134  001042  0E01               	movlw	1
  3135  001044  6E39               	movwf	setBits@e^0,c
  3136  001046  0E01               	movlw	1
  3137  001048  6E3A               	movwf	setBits@f^0,c
  3138  00104A  0E00               	movlw	0
  3139  00104C  6E3B               	movwf	setBits@g^0,c
  3140  00104E  0E00               	movlw	0
  3141  001050  6E3C               	movwf	setBits@h^0,c
  3142  001052  0E00               	movlw	0
  3143  001054  EC93  F009         	call	_setBits
  3144  001058                     
  3145                           ;main.c: 343:             _delay((unsigned long)((30)*(200000/4000.0)));
  3146  001058  0ED6               	movlw	214
  3147  00105A                     u1707:
  3148  00105A  D000               	nop2	
  3149  00105C  D000               	nop2	
  3150  00105E  2EE8               	decfsz	wreg,f,c
  3151  001060  D7FC               	bra	u1707
  3152  001062  D000               	nop2	
  3153  001064                     
  3154                           ;main.c: 344:             PORTD = 0b10111101;
  3155  001064  0EBD               	movlw	189
  3156  001066  6E83               	movwf	131,c	;volatile
  3157  001068                     
  3158                           ;main.c: 345:             setBits(0,1,0,0,0,0,1,0);
  3159  001068  0E01               	movlw	1
  3160  00106A  6E36               	movwf	setBits@b^0,c
  3161  00106C  0E00               	movlw	0
  3162  00106E  6E37               	movwf	setBits@c^0,c
  3163  001070  0E00               	movlw	0
  3164  001072  6E38               	movwf	setBits@d^0,c
  3165  001074  0E00               	movlw	0
  3166  001076  6E39               	movwf	setBits@e^0,c
  3167  001078  0E00               	movlw	0
  3168  00107A  6E3A               	movwf	setBits@f^0,c
  3169  00107C  0E01               	movlw	1
  3170  00107E  6E3B               	movwf	setBits@g^0,c
  3171  001080  0E00               	movlw	0
  3172  001082  6E3C               	movwf	setBits@h^0,c
  3173  001084  0E00               	movlw	0
  3174  001086  EC93  F009         	call	_setBits
  3175  00108A                     
  3176                           ;main.c: 346:             _delay((unsigned long)((30)*(200000/4000.0)));
  3177  00108A  0ED6               	movlw	214
  3178  00108C                     u1717:
  3179  00108C  D000               	nop2	
  3180  00108E  D000               	nop2	
  3181  001090  2EE8               	decfsz	wreg,f,c
  3182  001092  D7FC               	bra	u1717
  3183  001094  D000               	nop2	
  3184  001096                     
  3185                           ;main.c: 347:             PORTD = 0b11011011;
  3186  001096  0EDB               	movlw	219
  3187  001098  6E83               	movwf	131,c	;volatile
  3188  00109A                     
  3189                           ;main.c: 348:             setBits(1,0,1,0,1,0,0,1);
  3190  00109A  0E00               	movlw	0
  3191  00109C  6E36               	movwf	setBits@b^0,c
  3192  00109E  0E01               	movlw	1
  3193  0010A0  6E37               	movwf	setBits@c^0,c
  3194  0010A2  0E00               	movlw	0
  3195  0010A4  6E38               	movwf	setBits@d^0,c
  3196  0010A6  0E01               	movlw	1
  3197  0010A8  6E39               	movwf	setBits@e^0,c
  3198  0010AA  0E00               	movlw	0
  3199  0010AC  6E3A               	movwf	setBits@f^0,c
  3200  0010AE  0E00               	movlw	0
  3201  0010B0  6E3B               	movwf	setBits@g^0,c
  3202  0010B2  0E01               	movlw	1
  3203  0010B4  6E3C               	movwf	setBits@h^0,c
  3204  0010B6  0E01               	movlw	1
  3205  0010B8  EC93  F009         	call	_setBits
  3206  0010BC                     
  3207                           ;main.c: 349:             _delay((unsigned long)((30)*(200000/4000.0)));
  3208  0010BC  0ED6               	movlw	214
  3209  0010BE                     u1727:
  3210  0010BE  D000               	nop2	
  3211  0010C0  D000               	nop2	
  3212  0010C2  2EE8               	decfsz	wreg,f,c
  3213  0010C4  D7FC               	bra	u1727
  3214  0010C6  D000               	nop2	
  3215  0010C8                     
  3216                           ;main.c: 350:             PORTD = 0b11100111;
  3217  0010C8  0EE7               	movlw	231
  3218  0010CA  6E83               	movwf	131,c	;volatile
  3219  0010CC                     
  3220                           ;main.c: 351:             setBits(1,0,0,0,0,1,0,1);
  3221  0010CC  0E00               	movlw	0
  3222  0010CE  6E36               	movwf	setBits@b^0,c
  3223  0010D0  0E00               	movlw	0
  3224  0010D2  6E37               	movwf	setBits@c^0,c
  3225  0010D4  0E00               	movlw	0
  3226  0010D6  6E38               	movwf	setBits@d^0,c
  3227  0010D8  0E00               	movlw	0
  3228  0010DA  6E39               	movwf	setBits@e^0,c
  3229  0010DC  0E01               	movlw	1
  3230  0010DE  6E3A               	movwf	setBits@f^0,c
  3231  0010E0  0E00               	movlw	0
  3232  0010E2  6E3B               	movwf	setBits@g^0,c
  3233  0010E4  0E01               	movlw	1
  3234  0010E6  6E3C               	movwf	setBits@h^0,c
  3235  0010E8  0E01               	movlw	1
  3236  0010EA  EC93  F009         	call	_setBits
  3237  0010EE                     
  3238                           ;main.c: 352:             _delay((unsigned long)((30)*(200000/4000.0)));
  3239  0010EE  0ED6               	movlw	214
  3240  0010F0                     u1737:
  3241  0010F0  D000               	nop2	
  3242  0010F2  D000               	nop2	
  3243  0010F4  2EE8               	decfsz	wreg,f,c
  3244  0010F6  D7FC               	bra	u1737
  3245  0010F8  D000               	nop2	
  3246  0010FA                     
  3247                           ;main.c: 353:             PORTD = 0b11011011;
  3248  0010FA  0EDB               	movlw	219
  3249  0010FC  6E83               	movwf	131,c	;volatile
  3250  0010FE                     
  3251                           ;main.c: 354:             setBits(0,0,1,0,0,0,0,0);
  3252  0010FE  0E00               	movlw	0
  3253  001100  6E36               	movwf	setBits@b^0,c
  3254  001102  0E01               	movlw	1
  3255  001104  6E37               	movwf	setBits@c^0,c
  3256  001106  0E00               	movlw	0
  3257  001108  6E38               	movwf	setBits@d^0,c
  3258  00110A  0E00               	movlw	0
  3259  00110C  6E39               	movwf	setBits@e^0,c
  3260  00110E  0E00               	movlw	0
  3261  001110  6E3A               	movwf	setBits@f^0,c
  3262  001112  0E00               	movlw	0
  3263  001114  6E3B               	movwf	setBits@g^0,c
  3264  001116  0E00               	movlw	0
  3265  001118  6E3C               	movwf	setBits@h^0,c
  3266  00111A  0E00               	movlw	0
  3267  00111C  EC93  F009         	call	_setBits
  3268  001120  EF49  F002         	goto	l1897
  3269  001124                     l204:
  3270  001124  EF58  F000         	goto	l1777
  3271  001128  EF36  F000         	goto	start
  3272  00112C                     __end_of_main:
  3273                           	callstack 0
  3274                           
  3275 ;; *************** function _strncpy *****************
  3276 ;; Defined at:
  3277 ;;		line 3 in file "C:\Program Files\Microchip\xc8\v2.30\pic\sources\c99\common\strncpy.c"
  3278 ;; Parameters:    Size  Location     Type
  3279 ;;  d               2   13[COMRAM] PTR unsigned char 
  3280 ;;		 -> str(20), 
  3281 ;;  s               2   15[COMRAM] PTR const unsigned char 
  3282 ;;		 -> mystring(20), 
  3283 ;;  n               2   17[COMRAM] unsigned int 
  3284 ;; Auto vars:     Size  Location     Type
  3285 ;;  cp              2   19[COMRAM] PTR unsigned char 
  3286 ;;		 -> str(20), 
  3287 ;; Return value:  Size  Location     Type
  3288 ;;                  2   13[COMRAM] PTR unsigned char 
  3289 ;; Registers used:
  3290 ;;		wreg, fsr1l, fsr1h, fsr2l, fsr2h, status,2, status,0
  3291 ;; Tracked objects:
  3292 ;;		On entry : 0/0
  3293 ;;		On exit  : 0/0
  3294 ;;		Unchanged: 0/0
  3295 ;; Data sizes:     COMRAM   BANK0   BANK1   BANK2   BANK3   BANK4   BANK5
  3296 ;;      Params:         6       0       0       0       0       0       0
  3297 ;;      Locals:         2       0       0       0       0       0       0
  3298 ;;      Temps:          0       0       0       0       0       0       0
  3299 ;;      Totals:         8       0       0       0       0       0       0
  3300 ;;Total ram usage:        8 bytes
  3301 ;; Hardware stack levels used:    1
  3302 ;; Hardware stack levels required when called:    4
  3303 ;; This function calls:
  3304 ;;		Nothing
  3305 ;; This function is called by:
  3306 ;;		_main
  3307 ;; This function uses a non-reentrant model
  3308 ;;
  3309                           
  3310                           	psect	text1
  3311  0011DC                     __ptext1:
  3312                           	callstack 0
  3313  0011DC                     _strncpy:
  3314                           	callstack 26
  3315  0011DC  C038  F03E         	movff	strncpy@d,strncpy@cp
  3316  0011E0  C039  F03F         	movff	strncpy@d+1,strncpy@cp+1
  3317  0011E4  EF0F  F009         	goto	l1733
  3318  0011E8                     l1727:
  3319  0011E8  063C               	decf	strncpy@n^0,f,c
  3320  0011EA  A0D8               	btfss	status,0,c
  3321  0011EC  063D               	decf	(strncpy@n+1)^0,f,c
  3322  0011EE  C03A  FFD9         	movff	strncpy@s,fsr2l
  3323  0011F2  C03B  FFDA         	movff	strncpy@s+1,fsr2h
  3324  0011F6  4A3A               	infsnz	strncpy@s^0,f,c
  3325  0011F8  2A3B               	incf	(strncpy@s+1)^0,f,c
  3326  0011FA  C03E  FFE1         	movff	strncpy@cp,fsr1l
  3327  0011FE  C03F  FFE2         	movff	strncpy@cp+1,fsr1h
  3328  001202  4A3E               	infsnz	strncpy@cp^0,f,c
  3329  001204  2A3F               	incf	(strncpy@cp+1)^0,f,c
  3330  001206  CFDF FFE7          	movff	indf2,indf1
  3331  00120A  50E7               	movf	indf1,w,c
  3332  00120C  A4D8               	btfss	status,2,c
  3333  00120E  EF0B  F009         	goto	u771
  3334  001212  EF0D  F009         	goto	u770
  3335  001216                     u771:
  3336  001216  EF0F  F009         	goto	l1733
  3337  00121A                     u770:
  3338  00121A  EF22  F009         	goto	l1739
  3339  00121E                     l1733:
  3340  00121E  503C               	movf	strncpy@n^0,w,c
  3341  001220  103D               	iorwf	(strncpy@n+1)^0,w,c
  3342  001222  A4D8               	btfss	status,2,c
  3343  001224  EF16  F009         	goto	u781
  3344  001228  EF18  F009         	goto	u780
  3345  00122C                     u781:
  3346  00122C  EFF4  F008         	goto	l1727
  3347  001230                     u780:
  3348  001230  EF22  F009         	goto	l1739
  3349  001234                     l1735:
  3350  001234  C03E  FFD9         	movff	strncpy@cp,fsr2l
  3351  001238  C03F  FFDA         	movff	strncpy@cp+1,fsr2h
  3352  00123C  0E00               	movlw	0
  3353  00123E  6EDF               	movwf	indf2,c
  3354  001240  4A3E               	infsnz	strncpy@cp^0,f,c
  3355  001242  2A3F               	incf	(strncpy@cp+1)^0,f,c
  3356  001244                     l1739:
  3357  001244  063C               	decf	strncpy@n^0,f,c
  3358  001246  A0D8               	btfss	status,0,c
  3359  001248  063D               	decf	(strncpy@n+1)^0,f,c
  3360  00124A  283C               	incf	strncpy@n^0,w,c
  3361  00124C  E106               	bnz	u791
  3362  00124E  283D               	incf	(strncpy@n+1)^0,w,c
  3363  001250  A4D8               	btfss	status,2,c
  3364  001252  EF2D  F009         	goto	u791
  3365  001256  EF2F  F009         	goto	u790
  3366  00125A                     u791:
  3367  00125A  EF1A  F009         	goto	l1735
  3368  00125E                     u790:
  3369  00125E  0012               	return		;funcret
  3370  001260                     __end_of_strncpy:
  3371                           	callstack 0
  3372                           
  3373 ;; *************** function _strcmp *****************
  3374 ;; Defined at:
  3375 ;;		line 3 in file "C:\Program Files\Microchip\xc8\v2.30\pic\sources\c99\common\strcmp.c"
  3376 ;; Parameters:    Size  Location     Type
  3377 ;;  l               2   11[COMRAM] PTR const unsigned char 
  3378 ;;		 -> str(20), 
  3379 ;;  r               2   13[COMRAM] PTR const unsigned char 
  3380 ;;		 -> STR_1(6), 
  3381 ;; Auto vars:     Size  Location     Type
  3382 ;;		None
  3383 ;; Return value:  Size  Location     Type
  3384 ;;                  2   11[COMRAM] int 
  3385 ;; Registers used:
  3386 ;;		wreg, fsr2l, fsr2h, status,2, status,0, tblptrl, tblptrh, tblptru
  3387 ;; Tracked objects:
  3388 ;;		On entry : 0/0
  3389 ;;		On exit  : 0/0
  3390 ;;		Unchanged: 0/0
  3391 ;; Data sizes:     COMRAM   BANK0   BANK1   BANK2   BANK3   BANK4   BANK5
  3392 ;;      Params:         4       0       0       0       0       0       0
  3393 ;;      Locals:         0       0       0       0       0       0       0
  3394 ;;      Temps:          1       0       0       0       0       0       0
  3395 ;;      Totals:         5       0       0       0       0       0       0
  3396 ;;Total ram usage:        5 bytes
  3397 ;; Hardware stack levels used:    1
  3398 ;; Hardware stack levels required when called:    4
  3399 ;; This function calls:
  3400 ;;		Nothing
  3401 ;; This function is called by:
  3402 ;;		_main
  3403 ;; This function uses a non-reentrant model
  3404 ;;
  3405                           
  3406                           	psect	text2
  3407  001260                     __ptext2:
  3408                           	callstack 0
  3409  001260                     _strcmp:
  3410                           	callstack 26
  3411  001260  EF36  F009         	goto	l1745
  3412  001264                     l1743:
  3413  001264  4A36               	infsnz	strcmp@l^0,f,c
  3414  001266  2A37               	incf	(strcmp@l+1)^0,f,c
  3415  001268  4A38               	infsnz	strcmp@r^0,f,c
  3416  00126A  2A39               	incf	(strcmp@r+1)^0,f,c
  3417  00126C                     l1745:
  3418  00126C  C036  FFD9         	movff	strcmp@l,fsr2l
  3419  001270  C037  FFDA         	movff	strcmp@l+1,fsr2h
  3420  001274  50DF               	movf	indf2,w,c
  3421  001276  6E3A               	movwf	??_strcmp^0,c
  3422  001278  C038  FFF6         	movff	strcmp@r,tblptrl
  3423  00127C  C039  FFF7         	movff	strcmp@r+1,tblptrh
  3424  001280                     	if	0	;tblptru may be non-zero
  3425  001280                     	endif
  3426  001280                     	if	0	;tblptru may be non-zero
  3427  001280                     	endif
  3428  001280  0008               	tblrd		*
  3429  001282  50F5               	movf	tablat,w,c
  3430  001284  183A               	xorwf	??_strcmp^0,w,c
  3431  001286  A4D8               	btfss	status,2,c
  3432  001288  EF48  F009         	goto	u801
  3433  00128C  EF4A  F009         	goto	u800
  3434  001290                     u801:
  3435  001290  EF56  F009         	goto	l1749
  3436  001294                     u800:
  3437  001294  C036  FFD9         	movff	strcmp@l,fsr2l
  3438  001298  C037  FFDA         	movff	strcmp@l+1,fsr2h
  3439  00129C  50DF               	movf	indf2,w,c
  3440  00129E  A4D8               	btfss	status,2,c
  3441  0012A0  EF54  F009         	goto	u811
  3442  0012A4  EF56  F009         	goto	u810
  3443  0012A8                     u811:
  3444  0012A8  EF32  F009         	goto	l1743
  3445  0012AC                     u810:
  3446  0012AC                     l1749:
  3447  0012AC  C036  FFD9         	movff	strcmp@l,fsr2l
  3448  0012B0  C037  FFDA         	movff	strcmp@l+1,fsr2h
  3449  0012B4  50DF               	movf	indf2,w,c
  3450  0012B6  6E3A               	movwf	??_strcmp^0,c
  3451  0012B8  C038  FFF6         	movff	strcmp@r,tblptrl
  3452  0012BC  C039  FFF7         	movff	strcmp@r+1,tblptrh
  3453  0012C0                     	if	0	;tblptru may be non-zero
  3454  0012C0                     	endif
  3455  0012C0                     	if	0	;tblptru may be non-zero
  3456  0012C0                     	endif
  3457  0012C0  0008               	tblrd		*
  3458  0012C2  50F5               	movf	tablat,w,c
  3459  0012C4  5C3A               	subwf	??_strcmp^0,w,c
  3460  0012C6  6E36               	movwf	?_strcmp^0,c
  3461  0012C8  6A37               	clrf	(?_strcmp+1)^0,c
  3462  0012CA  A0D8               	btfss	status,0,c
  3463  0012CC  0637               	decf	(?_strcmp+1)^0,f,c
  3464  0012CE  0012               	return		;funcret
  3465  0012D0                     __end_of_strcmp:
  3466                           	callstack 0
  3467                           
  3468 ;; *************** function _setBits *****************
  3469 ;; Defined at:
  3470 ;;		line 27 in file "main.c"
  3471 ;; Parameters:    Size  Location     Type
  3472 ;;  a               1    wreg     unsigned char 
  3473 ;;  b               1   11[COMRAM] unsigned char 
  3474 ;;  c               1   12[COMRAM] unsigned char 
  3475 ;;  d               1   13[COMRAM] unsigned char 
  3476 ;;  e               1   14[COMRAM] unsigned char 
  3477 ;;  f               1   15[COMRAM] unsigned char 
  3478 ;;  g               1   16[COMRAM] unsigned char 
  3479 ;;  h               1   17[COMRAM] unsigned char 
  3480 ;; Auto vars:     Size  Location     Type
  3481 ;;  a               1   18[COMRAM] unsigned char 
  3482 ;; Return value:  Size  Location     Type
  3483 ;;                  1    wreg      void 
  3484 ;; Registers used:
  3485 ;;		wreg
  3486 ;; Tracked objects:
  3487 ;;		On entry : 0/0
  3488 ;;		On exit  : 0/0
  3489 ;;		Unchanged: 0/0
  3490 ;; Data sizes:     COMRAM   BANK0   BANK1   BANK2   BANK3   BANK4   BANK5
  3491 ;;      Params:         7       0       0       0       0       0       0
  3492 ;;      Locals:         1       0       0       0       0       0       0
  3493 ;;      Temps:          0       0       0       0       0       0       0
  3494 ;;      Totals:         8       0       0       0       0       0       0
  3495 ;;Total ram usage:        8 bytes
  3496 ;; Hardware stack levels used:    1
  3497 ;; Hardware stack levels required when called:    4
  3498 ;; This function calls:
  3499 ;;		Nothing
  3500 ;; This function is called by:
  3501 ;;		_main
  3502 ;; This function uses a non-reentrant model
  3503 ;;
  3504                           
  3505                           	psect	text3
  3506  001326                     __ptext3:
  3507                           	callstack 0
  3508  001326                     _setBits:
  3509                           	callstack 26
  3510                           
  3511                           ;incstack = 0
  3512                           ;setBits@a stored from wreg
  3513  001326  6E3D               	movwf	setBits@a^0,c
  3514  001328                     
  3515                           ;main.c: 28:     PORTCbits.RC0=a;
  3516  001328  B03D               	btfsc	setBits@a^0,0,c
  3517  00132A  D002               	bra	u695
  3518  00132C  9082               	bcf	130,0,c	;volatile
  3519  00132E  D001               	bra	u696
  3520  001330                     u695:
  3521  001330  8082               	bsf	130,0,c	;volatile
  3522  001332                     u696:
  3523  001332                     
  3524                           ;main.c: 29:     PORTCbits.RC1=b;
  3525  001332  B036               	btfsc	setBits@b^0,0,c
  3526  001334  D002               	bra	u705
  3527  001336  9282               	bcf	130,1,c	;volatile
  3528  001338  D001               	bra	u706
  3529  00133A                     u705:
  3530  00133A  8282               	bsf	130,1,c	;volatile
  3531  00133C                     u706:
  3532  00133C                     
  3533                           ;main.c: 30:     PORTEbits.RE0=c;
  3534  00133C  B037               	btfsc	setBits@c^0,0,c
  3535  00133E  D002               	bra	u715
  3536  001340  9084               	bcf	132,0,c	;volatile
  3537  001342  D001               	bra	u716
  3538  001344                     u715:
  3539  001344  8084               	bsf	132,0,c	;volatile
  3540  001346                     u716:
  3541  001346                     
  3542                           ;main.c: 31:     PORTCbits.RC3=d;
  3543  001346  B038               	btfsc	setBits@d^0,0,c
  3544  001348  D002               	bra	u725
  3545  00134A  9682               	bcf	130,3,c	;volatile
  3546  00134C  D001               	bra	u726
  3547  00134E                     u725:
  3548  00134E  8682               	bsf	130,3,c	;volatile
  3549  001350                     u726:
  3550  001350                     
  3551                           ;main.c: 32:     PORTCbits.RC4=e;
  3552  001350  B039               	btfsc	setBits@e^0,0,c
  3553  001352  D002               	bra	u735
  3554  001354  9882               	bcf	130,4,c	;volatile
  3555  001356  D001               	bra	u736
  3556  001358                     u735:
  3557  001358  8882               	bsf	130,4,c	;volatile
  3558  00135A                     u736:
  3559  00135A                     
  3560                           ;main.c: 33:     PORTCbits.RC5=f;
  3561  00135A  B03A               	btfsc	setBits@f^0,0,c
  3562  00135C  D002               	bra	u745
  3563  00135E  9A82               	bcf	130,5,c	;volatile
  3564  001360  D001               	bra	u746
  3565  001362                     u745:
  3566  001362  8A82               	bsf	130,5,c	;volatile
  3567  001364                     u746:
  3568  001364                     
  3569                           ;main.c: 34:     PORTEbits.RE1=g;
  3570  001364  B03B               	btfsc	setBits@g^0,0,c
  3571  001366  D002               	bra	u755
  3572  001368  9284               	bcf	132,1,c	;volatile
  3573  00136A  D001               	bra	u756
  3574  00136C                     u755:
  3575  00136C  8284               	bsf	132,1,c	;volatile
  3576  00136E                     u756:
  3577  00136E                     
  3578                           ;main.c: 35:     PORTEbits.RE2=h;
  3579  00136E  B03C               	btfsc	setBits@h^0,0,c
  3580  001370  D002               	bra	u765
  3581  001372  9484               	bcf	132,2,c	;volatile
  3582  001374  D001               	bra	u766
  3583  001376                     u765:
  3584  001376  8484               	bsf	132,2,c	;volatile
  3585  001378                     u766:
  3586  001378  0012               	return		;funcret
  3587  00137A                     __end_of_setBits:
  3588                           	callstack 0
  3589                           
  3590 ;; *************** function _UART_Write_Text *****************
  3591 ;; Defined at:
  3592 ;;		line 50 in file "setting_hardaware/uart.c"
  3593 ;; Parameters:    Size  Location     Type
  3594 ;;  text            2   12[COMRAM] PTR unsigned char 
  3595 ;;		 -> STR_13(35), STR_12(85), STR_11(20), STR_10(11), 
  3596 ;;		 -> STR_9(28), STR_8(36), STR_7(21), STR_6(26), 
  3597 ;;		 -> STR_5(60), STR_4(10), STR_3(10), STR_2(20), 
  3598 ;; Auto vars:     Size  Location     Type
  3599 ;;  i               2   16[COMRAM] int 
  3600 ;; Return value:  Size  Location     Type
  3601 ;;                  1    wreg      void 
  3602 ;; Registers used:
  3603 ;;		wreg, status,2, status,0, tblptrl, tblptrh, tblptru, cstack
  3604 ;; Tracked objects:
  3605 ;;		On entry : 0/0
  3606 ;;		On exit  : 0/0
  3607 ;;		Unchanged: 0/0
  3608 ;; Data sizes:     COMRAM   BANK0   BANK1   BANK2   BANK3   BANK4   BANK5
  3609 ;;      Params:         2       0       0       0       0       0       0
  3610 ;;      Locals:         2       0       0       0       0       0       0
  3611 ;;      Temps:          2       0       0       0       0       0       0
  3612 ;;      Totals:         6       0       0       0       0       0       0
  3613 ;;Total ram usage:        6 bytes
  3614 ;; Hardware stack levels used:    1
  3615 ;; Hardware stack levels required when called:    5
  3616 ;; This function calls:
  3617 ;;		_UART_Write
  3618 ;; This function is called by:
  3619 ;;		_main
  3620 ;; This function uses a non-reentrant model
  3621 ;;
  3622                           
  3623                           	psect	text4
  3624  0012D0                     __ptext4:
  3625                           	callstack 0
  3626  0012D0                     _UART_Write_Text:
  3627                           	callstack 25
  3628  0012D0                     
  3629                           ;setting_hardaware/uart.c: 51:     for(int i=0;text[i]!='\0';i++)
  3630  0012D0  0E00               	movlw	0
  3631  0012D2  6E3C               	movwf	(UART_Write_Text@i+1)^0,c
  3632  0012D4  0E00               	movlw	0
  3633  0012D6  6E3B               	movwf	UART_Write_Text@i^0,c
  3634  0012D8  EF7E  F009         	goto	l1691
  3635  0012DC                     l1687:
  3636                           
  3637                           ;setting_hardaware/uart.c: 52:         UART_Write(text[i]);
  3638  0012DC  503B               	movf	UART_Write_Text@i^0,w,c
  3639  0012DE  2437               	addwf	UART_Write_Text@text^0,w,c
  3640  0012E0  6E39               	movwf	??_UART_Write_Text^0,c
  3641  0012E2  503C               	movf	(UART_Write_Text@i+1)^0,w,c
  3642  0012E4  2038               	addwfc	(UART_Write_Text@text+1)^0,w,c
  3643  0012E6  6E3A               	movwf	(??_UART_Write_Text+1)^0,c
  3644  0012E8  C039  FFF6         	movff	??_UART_Write_Text,tblptrl
  3645  0012EC  C03A  FFF7         	movff	??_UART_Write_Text+1,tblptrh
  3646  0012F0                     	if	0	;tblptru may be non-zero
  3647  0012F0                     	endif
  3648  0012F0                     	if	0	;tblptru may be non-zero
  3649  0012F0                     	endif
  3650  0012F0  0008               	tblrd		*
  3651  0012F2  50F5               	movf	tablat,w,c
  3652  0012F4  EC41  F00A         	call	_UART_Write
  3653  0012F8  4A3B               	infsnz	UART_Write_Text@i^0,f,c
  3654  0012FA  2A3C               	incf	(UART_Write_Text@i+1)^0,f,c
  3655  0012FC                     l1691:
  3656  0012FC  503B               	movf	UART_Write_Text@i^0,w,c
  3657  0012FE  2437               	addwf	UART_Write_Text@text^0,w,c
  3658  001300  6E39               	movwf	??_UART_Write_Text^0,c
  3659  001302  503C               	movf	(UART_Write_Text@i+1)^0,w,c
  3660  001304  2038               	addwfc	(UART_Write_Text@text+1)^0,w,c
  3661  001306  6E3A               	movwf	(??_UART_Write_Text+1)^0,c
  3662  001308  C039  FFF6         	movff	??_UART_Write_Text,tblptrl
  3663  00130C  C03A  FFF7         	movff	??_UART_Write_Text+1,tblptrh
  3664  001310                     	if	0	;tblptru may be non-zero
  3665  001310                     	endif
  3666  001310                     	if	0	;tblptru may be non-zero
  3667  001310                     	endif
  3668  001310  0008               	tblrd		*
  3669  001312  50F5               	movf	tablat,w,c
  3670  001314  0900               	iorlw	0
  3671  001316  A4D8               	btfss	status,2,c
  3672  001318  EF90  F009         	goto	u671
  3673  00131C  EF92  F009         	goto	u670
  3674  001320                     u671:
  3675  001320  EF6E  F009         	goto	l1687
  3676  001324                     u670:
  3677  001324  0012               	return		;funcret
  3678  001326                     __end_of_UART_Write_Text:
  3679                           	callstack 0
  3680                           
  3681 ;; *************** function _UART_Write *****************
  3682 ;; Defined at:
  3683 ;;		line 40 in file "setting_hardaware/uart.c"
  3684 ;; Parameters:    Size  Location     Type
  3685 ;;  data            1    wreg     unsigned char 
  3686 ;; Auto vars:     Size  Location     Type
  3687 ;;  data            1   11[COMRAM] unsigned char 
  3688 ;; Return value:  Size  Location     Type
  3689 ;;                  1    wreg      void 
  3690 ;; Registers used:
  3691 ;;		wreg
  3692 ;; Tracked objects:
  3693 ;;		On entry : 0/0
  3694 ;;		On exit  : 0/0
  3695 ;;		Unchanged: 0/0
  3696 ;; Data sizes:     COMRAM   BANK0   BANK1   BANK2   BANK3   BANK4   BANK5
  3697 ;;      Params:         0       0       0       0       0       0       0
  3698 ;;      Locals:         1       0       0       0       0       0       0
  3699 ;;      Temps:          0       0       0       0       0       0       0
  3700 ;;      Totals:         1       0       0       0       0       0       0
  3701 ;;Total ram usage:        1 bytes
  3702 ;; Hardware stack levels used:    1
  3703 ;; Hardware stack levels required when called:    4
  3704 ;; This function calls:
  3705 ;;		Nothing
  3706 ;; This function is called by:
  3707 ;;		_UART_Write_Text
  3708 ;; This function uses a non-reentrant model
  3709 ;;
  3710                           
  3711                           	psect	text5
  3712  001482                     __ptext5:
  3713                           	callstack 0
  3714  001482                     _UART_Write:
  3715                           	callstack 25
  3716                           
  3717                           ;incstack = 0
  3718                           ;UART_Write@data stored from wreg
  3719  001482  6E36               	movwf	UART_Write@data^0,c
  3720  001484                     l58:
  3721  001484  A2AC               	btfss	172,1,c	;volatile
  3722  001486  EF47  F00A         	goto	u11
  3723  00148A  EF49  F00A         	goto	u10
  3724  00148E                     u11:
  3725  00148E  EF42  F00A         	goto	l58
  3726  001492                     u10:
  3727  001492                     
  3728                           ;setting_hardaware/uart.c: 43:     TXREG = data;
  3729  001492  C036  FFAD         	movff	UART_Write@data,4013	;volatile
  3730  001496  0012               	return		;funcret
  3731  001498                     __end_of_UART_Write:
  3732                           	callstack 0
  3733                           
  3734 ;; *************** function _SYSTEM_Initialize *****************
  3735 ;; Defined at:
  3736 ;;		line 60 in file "setting_hardaware/setting.c"
  3737 ;; Parameters:    Size  Location     Type
  3738 ;;		None
  3739 ;; Auto vars:     Size  Location     Type
  3740 ;;		None
  3741 ;; Return value:  Size  Location     Type
  3742 ;;                  1    wreg      void 
  3743 ;; Registers used:
  3744 ;;		wreg, status,2, cstack
  3745 ;; Tracked objects:
  3746 ;;		On entry : 0/0
  3747 ;;		On exit  : 0/0
  3748 ;;		Unchanged: 0/0
  3749 ;; Data sizes:     COMRAM   BANK0   BANK1   BANK2   BANK3   BANK4   BANK5
  3750 ;;      Params:         0       0       0       0       0       0       0
  3751 ;;      Locals:         0       0       0       0       0       0       0
  3752 ;;      Temps:          0       0       0       0       0       0       0
  3753 ;;      Totals:         0       0       0       0       0       0       0
  3754 ;;Total ram usage:        0 bytes
  3755 ;; Hardware stack levels used:    1
  3756 ;; Hardware stack levels required when called:    5
  3757 ;; This function calls:
  3758 ;;		_ADC_Initialize
  3759 ;;		_CCP1_Initialize
  3760 ;;		_INTERRUPT_Initialize
  3761 ;;		_OSCILLATOR_Initialize
  3762 ;;		_UART_Initialize
  3763 ;; This function is called by:
  3764 ;;		_main
  3765 ;; This function uses a non-reentrant model
  3766 ;;
  3767                           
  3768                           	psect	text6
  3769  001498                     __ptext6:
  3770                           	callstack 0
  3771  001498                     _SYSTEM_Initialize:
  3772                           	callstack 25
  3773  001498                     
  3774                           ;setting_hardaware/setting.c: 63:     OSCILLATOR_Initialize();
  3775  001498  EC78  F00A         	call	_OSCILLATOR_Initialize	;wreg free
  3776                           
  3777                           ;setting_hardaware/setting.c: 67:     INTERRUPT_Initialize();
  3778  00149C  EC7C  F00A         	call	_INTERRUPT_Initialize	;wreg free
  3779  0014A0                     
  3780                           ;setting_hardaware/setting.c: 68:     UART_Initialize();
  3781  0014A0  EC13  F00A         	call	_UART_Initialize	;wreg free
  3782  0014A4                     
  3783                           ;setting_hardaware/setting.c: 69:     CCP1_Initialize();
  3784  0014A4  EC6D  F00A         	call	_CCP1_Initialize	;wreg free
  3785  0014A8                     
  3786                           ;setting_hardaware/setting.c: 70:     ADC_Initialize();
  3787  0014A8  EC57  F00A         	call	_ADC_Initialize	;wreg free
  3788  0014AC  0012               	return		;funcret
  3789  0014AE                     __end_of_SYSTEM_Initialize:
  3790                           	callstack 0
  3791                           
  3792 ;; *************** function _UART_Initialize *****************
  3793 ;; Defined at:
  3794 ;;		line 7 in file "setting_hardaware/uart.c"
  3795 ;; Parameters:    Size  Location     Type
  3796 ;;		None
  3797 ;; Auto vars:     Size  Location     Type
  3798 ;;		None
  3799 ;; Return value:  Size  Location     Type
  3800 ;;                  1    wreg      void 
  3801 ;; Registers used:
  3802 ;;		wreg, status,2
  3803 ;; Tracked objects:
  3804 ;;		On entry : 0/0
  3805 ;;		On exit  : 0/0
  3806 ;;		Unchanged: 0/0
  3807 ;; Data sizes:     COMRAM   BANK0   BANK1   BANK2   BANK3   BANK4   BANK5
  3808 ;;      Params:         0       0       0       0       0       0       0
  3809 ;;      Locals:         0       0       0       0       0       0       0
  3810 ;;      Temps:          0       0       0       0       0       0       0
  3811 ;;      Totals:         0       0       0       0       0       0       0
  3812 ;;Total ram usage:        0 bytes
  3813 ;; Hardware stack levels used:    1
  3814 ;; Hardware stack levels required when called:    4
  3815 ;; This function calls:
  3816 ;;		Nothing
  3817 ;; This function is called by:
  3818 ;;		_SYSTEM_Initialize
  3819 ;; This function uses a non-reentrant model
  3820 ;;
  3821                           
  3822                           	psect	text7
  3823  001426                     __ptext7:
  3824                           	callstack 0
  3825  001426                     _UART_Initialize:
  3826                           	callstack 25
  3827  001426                     
  3828                           ;setting_hardaware/uart.c: 10:     TRISCbits.TRISC6 = 1;
  3829  001426  8C94               	bsf	148,6,c	;volatile
  3830                           
  3831                           ;setting_hardaware/uart.c: 11:     TRISCbits.TRISC7 = 1;
  3832  001428  8E94               	bsf	148,7,c	;volatile
  3833                           
  3834                           ;setting_hardaware/uart.c: 22:     TXSTAbits.SYNC = 0;
  3835  00142A  98AC               	bcf	172,4,c	;volatile
  3836                           
  3837                           ;setting_hardaware/uart.c: 23:     BAUDCONbits.BRG16 = 0 ;
  3838  00142C  96B8               	bcf	184,3,c	;volatile
  3839                           
  3840                           ;setting_hardaware/uart.c: 24:     TXSTAbits.BRGH = 1;
  3841  00142E  84AC               	bsf	172,2,c	;volatile
  3842  001430                     
  3843                           ;setting_hardaware/uart.c: 25:     SPBRG = 207;
  3844  001430  0ECF               	movlw	207
  3845  001432  6EAF               	movwf	175,c	;volatile
  3846  001434                     
  3847                           ;setting_hardaware/uart.c: 28:     RCSTAbits.SPEN = 1;
  3848  001434  8EAB               	bsf	171,7,c	;volatile
  3849  001436                     
  3850                           ;setting_hardaware/uart.c: 29:     PIR1bits.TXIF = 1;
  3851  001436  889E               	bsf	158,4,c	;volatile
  3852  001438                     
  3853                           ;setting_hardaware/uart.c: 30:     PIR1bits.RCIF = 0;
  3854  001438  9A9E               	bcf	158,5,c	;volatile
  3855  00143A                     
  3856                           ;setting_hardaware/uart.c: 31:     TXSTAbits.TXEN = 1;
  3857  00143A  8AAC               	bsf	172,5,c	;volatile
  3858  00143C                     
  3859                           ;setting_hardaware/uart.c: 32:     RCSTAbits.CREN = 1;
  3860  00143C  88AB               	bsf	171,4,c	;volatile
  3861  00143E                     
  3862                           ;setting_hardaware/uart.c: 34:     PIE1bits.TXIE = 0;
  3863  00143E  989D               	bcf	157,4,c	;volatile
  3864  001440                     
  3865                           ;setting_hardaware/uart.c: 35:     IPR1bits.TXIP = 0;
  3866  001440  989F               	bcf	159,4,c	;volatile
  3867  001442                     
  3868                           ;setting_hardaware/uart.c: 36:     PIE1bits.RCIE = 1;
  3869  001442  8A9D               	bsf	157,5,c	;volatile
  3870  001444                     
  3871                           ;setting_hardaware/uart.c: 37:     IPR1bits.RCIP = 0;
  3872  001444  9A9F               	bcf	159,5,c	;volatile
  3873  001446  0012               	return		;funcret
  3874  001448                     __end_of_UART_Initialize:
  3875                           	callstack 0
  3876                           
  3877 ;; *************** function _OSCILLATOR_Initialize *****************
  3878 ;; Defined at:
  3879 ;;		line 73 in file "setting_hardaware/setting.c"
  3880 ;; Parameters:    Size  Location     Type
  3881 ;;		None
  3882 ;; Auto vars:     Size  Location     Type
  3883 ;;		None
  3884 ;; Return value:  Size  Location     Type
  3885 ;;                  1    wreg      void 
  3886 ;; Registers used:
  3887 ;;		None
  3888 ;; Tracked objects:
  3889 ;;		On entry : 0/0
  3890 ;;		On exit  : 0/0
  3891 ;;		Unchanged: 0/0
  3892 ;; Data sizes:     COMRAM   BANK0   BANK1   BANK2   BANK3   BANK4   BANK5
  3893 ;;      Params:         0       0       0       0       0       0       0
  3894 ;;      Locals:         0       0       0       0       0       0       0
  3895 ;;      Temps:          0       0       0       0       0       0       0
  3896 ;;      Totals:         0       0       0       0       0       0       0
  3897 ;;Total ram usage:        0 bytes
  3898 ;; Hardware stack levels used:    1
  3899 ;; Hardware stack levels required when called:    4
  3900 ;; This function calls:
  3901 ;;		Nothing
  3902 ;; This function is called by:
  3903 ;;		_SYSTEM_Initialize
  3904 ;; This function uses a non-reentrant model
  3905 ;;
  3906                           
  3907                           	psect	text8
  3908  0014F0                     __ptext8:
  3909                           	callstack 0
  3910  0014F0                     _OSCILLATOR_Initialize:
  3911                           	callstack 25
  3912  0014F0                     
  3913                           ;setting_hardaware/setting.c: 75:     IRCF2 = 1;
  3914  0014F0  8CD3               	bsf	4051,6,c	;volatile
  3915                           
  3916                           ;setting_hardaware/setting.c: 76:     IRCF1 = 1;
  3917  0014F2  8AD3               	bsf	4051,5,c	;volatile
  3918                           
  3919                           ;setting_hardaware/setting.c: 77:     IRCF0 = 0;
  3920  0014F4  98D3               	bcf	4051,4,c	;volatile
  3921  0014F6  0012               	return		;funcret
  3922  0014F8                     __end_of_OSCILLATOR_Initialize:
  3923                           	callstack 0
  3924                           
  3925 ;; *************** function _INTERRUPT_Initialize *****************
  3926 ;; Defined at:
  3927 ;;		line 3 in file "setting_hardaware/interrupt_manager.c"
  3928 ;; Parameters:    Size  Location     Type
  3929 ;;		None
  3930 ;; Auto vars:     Size  Location     Type
  3931 ;;		None
  3932 ;; Return value:  Size  Location     Type
  3933 ;;                  1    wreg      void 
  3934 ;; Registers used:
  3935 ;;		None
  3936 ;; Tracked objects:
  3937 ;;		On entry : 0/0
  3938 ;;		On exit  : 0/0
  3939 ;;		Unchanged: 0/0
  3940 ;; Data sizes:     COMRAM   BANK0   BANK1   BANK2   BANK3   BANK4   BANK5
  3941 ;;      Params:         0       0       0       0       0       0       0
  3942 ;;      Locals:         0       0       0       0       0       0       0
  3943 ;;      Temps:          0       0       0       0       0       0       0
  3944 ;;      Totals:         0       0       0       0       0       0       0
  3945 ;;Total ram usage:        0 bytes
  3946 ;; Hardware stack levels used:    1
  3947 ;; Hardware stack levels required when called:    4
  3948 ;; This function calls:
  3949 ;;		Nothing
  3950 ;; This function is called by:
  3951 ;;		_SYSTEM_Initialize
  3952 ;; This function uses a non-reentrant model
  3953 ;;
  3954                           
  3955                           	psect	text9
  3956  0014F8                     __ptext9:
  3957                           	callstack 0
  3958  0014F8                     _INTERRUPT_Initialize:
  3959                           	callstack 25
  3960  0014F8                     
  3961                           ;setting_hardaware/interrupt_manager.c: 5:     RCONbits.IPEN = 1;
  3962  0014F8  8ED0               	bsf	208,7,c	;volatile
  3963                           
  3964                           ;setting_hardaware/interrupt_manager.c: 6:     INTCONbits.GIEH = 1;
  3965  0014FA  8EF2               	bsf	242,7,c	;volatile
  3966                           
  3967                           ;setting_hardaware/interrupt_manager.c: 7:     INTCONbits.GIEL = 1;
  3968  0014FC  8CF2               	bsf	242,6,c	;volatile
  3969  0014FE  0012               	return		;funcret
  3970  001500                     __end_of_INTERRUPT_Initialize:
  3971                           	callstack 0
  3972                           
  3973 ;; *************** function _CCP1_Initialize *****************
  3974 ;; Defined at:
  3975 ;;		line 3 in file "setting_hardaware/ccp1.c"
  3976 ;; Parameters:    Size  Location     Type
  3977 ;;		None
  3978 ;; Auto vars:     Size  Location     Type
  3979 ;;		None
  3980 ;; Return value:  Size  Location     Type
  3981 ;;                  1    wreg      void 
  3982 ;; Registers used:
  3983 ;;		wreg, status,2
  3984 ;; Tracked objects:
  3985 ;;		On entry : 0/0
  3986 ;;		On exit  : 0/0
  3987 ;;		Unchanged: 0/0
  3988 ;; Data sizes:     COMRAM   BANK0   BANK1   BANK2   BANK3   BANK4   BANK5
  3989 ;;      Params:         0       0       0       0       0       0       0
  3990 ;;      Locals:         0       0       0       0       0       0       0
  3991 ;;      Temps:          0       0       0       0       0       0       0
  3992 ;;      Totals:         0       0       0       0       0       0       0
  3993 ;;Total ram usage:        0 bytes
  3994 ;; Hardware stack levels used:    1
  3995 ;; Hardware stack levels required when called:    4
  3996 ;; This function calls:
  3997 ;;		Nothing
  3998 ;; This function is called by:
  3999 ;;		_SYSTEM_Initialize
  4000 ;; This function uses a non-reentrant model
  4001 ;;
  4002                           
  4003                           	psect	text10
  4004  0014DA                     __ptext10:
  4005                           	callstack 0
  4006  0014DA                     _CCP1_Initialize:
  4007                           	callstack 25
  4008  0014DA                     
  4009                           ;setting_hardaware/ccp1.c: 4:     TRISCbits.TRISC2=0;
  4010  0014DA  9494               	bcf	148,2,c	;volatile
  4011  0014DC                     
  4012                           ;setting_hardaware/ccp1.c: 5:     CCP1CON=9;
  4013  0014DC  0E09               	movlw	9
  4014  0014DE  6EBD               	movwf	189,c	;volatile
  4015  0014E0                     
  4016                           ;setting_hardaware/ccp1.c: 6:     PIR1bits.CCP1IF=0;
  4017  0014E0  949E               	bcf	158,2,c	;volatile
  4018  0014E2                     
  4019                           ;setting_hardaware/ccp1.c: 7:     IPR1bits.CCP1IP = 1;
  4020  0014E2  849F               	bsf	159,2,c	;volatile
  4021  0014E4  0012               	return		;funcret
  4022  0014E6                     __end_of_CCP1_Initialize:
  4023                           	callstack 0
  4024                           
  4025 ;; *************** function _ADC_Initialize *****************
  4026 ;; Defined at:
  4027 ;;		line 3 in file "setting_hardaware/adc.c"
  4028 ;; Parameters:    Size  Location     Type
  4029 ;;		None
  4030 ;; Auto vars:     Size  Location     Type
  4031 ;;		None
  4032 ;; Return value:  Size  Location     Type
  4033 ;;                  1    wreg      void 
  4034 ;; Registers used:
  4035 ;;		wreg, status,2
  4036 ;; Tracked objects:
  4037 ;;		On entry : 0/0
  4038 ;;		On exit  : 0/0
  4039 ;;		Unchanged: 0/0
  4040 ;; Data sizes:     COMRAM   BANK0   BANK1   BANK2   BANK3   BANK4   BANK5
  4041 ;;      Params:         0       0       0       0       0       0       0
  4042 ;;      Locals:         0       0       0       0       0       0       0
  4043 ;;      Temps:          0       0       0       0       0       0       0
  4044 ;;      Totals:         0       0       0       0       0       0       0
  4045 ;;Total ram usage:        0 bytes
  4046 ;; Hardware stack levels used:    1
  4047 ;; Hardware stack levels required when called:    4
  4048 ;; This function calls:
  4049 ;;		Nothing
  4050 ;; This function is called by:
  4051 ;;		_SYSTEM_Initialize
  4052 ;; This function uses a non-reentrant model
  4053 ;;
  4054                           
  4055                           	psect	text11
  4056  0014AE                     __ptext11:
  4057                           	callstack 0
  4058  0014AE                     _ADC_Initialize:
  4059                           	callstack 25
  4060  0014AE                     
  4061                           ;setting_hardaware/adc.c: 4:     TRISA = 0xff;
  4062  0014AE  6892               	setf	146,c	;volatile
  4063  0014B0                     
  4064                           ;setting_hardaware/adc.c: 5:     ADCON1 = 0x0e;
  4065  0014B0  0E0E               	movlw	14
  4066  0014B2  6EC1               	movwf	193,c	;volatile
  4067  0014B4                     
  4068                           ;setting_hardaware/adc.c: 7:     ADFM = 0 ;
  4069  0014B4  9EC0               	bcf	4032,7,c	;volatile
  4070                           
  4071                           ;setting_hardaware/adc.c: 8:     ADCON2bits.ADCS = 7;
  4072  0014B6  0E07               	movlw	7
  4073  0014B8  12C0               	iorwf	192,f,c	;volatile
  4074                           
  4075                           ;setting_hardaware/adc.c: 9:     ADRESH=0;
  4076  0014BA  0E00               	movlw	0
  4077  0014BC  6EC4               	movwf	196,c	;volatile
  4078                           
  4079                           ;setting_hardaware/adc.c: 10:     ADRESL=0;
  4080  0014BE  0E00               	movlw	0
  4081  0014C0  6EC3               	movwf	195,c	;volatile
  4082  0014C2  0012               	return		;funcret
  4083  0014C4                     __end_of_ADC_Initialize:
  4084                           	callstack 0
  4085                           
  4086 ;; *************** function _GetString *****************
  4087 ;; Defined at:
  4088 ;;		line 46 in file "setting_hardaware/uart.c"
  4089 ;; Parameters:    Size  Location     Type
  4090 ;;		None
  4091 ;; Auto vars:     Size  Location     Type
  4092 ;;		None
  4093 ;; Return value:  Size  Location     Type
  4094 ;;                  2   11[COMRAM] PTR unsigned char 
  4095 ;; Registers used:
  4096 ;;		wreg, status,2, status,0
  4097 ;; Tracked objects:
  4098 ;;		On entry : 0/0
  4099 ;;		On exit  : 0/0
  4100 ;;		Unchanged: 0/0
  4101 ;; Data sizes:     COMRAM   BANK0   BANK1   BANK2   BANK3   BANK4   BANK5
  4102 ;;      Params:         2       0       0       0       0       0       0
  4103 ;;      Locals:         0       0       0       0       0       0       0
  4104 ;;      Temps:          0       0       0       0       0       0       0
  4105 ;;      Totals:         2       0       0       0       0       0       0
  4106 ;;Total ram usage:        2 bytes
  4107 ;; Hardware stack levels used:    1
  4108 ;; Hardware stack levels required when called:    4
  4109 ;; This function calls:
  4110 ;;		Nothing
  4111 ;; This function is called by:
  4112 ;;		_main
  4113 ;; This function uses a non-reentrant model
  4114 ;;
  4115                           
  4116                           	psect	text12
  4117  0014E6                     __ptext12:
  4118                           	callstack 0
  4119  0014E6                     _GetString:
  4120                           	callstack 26
  4121  0014E6                     
  4122                           ;setting_hardaware/uart.c: 47:     return mystring;
  4123  0014E6  0E17               	movlw	low _mystring
  4124  0014E8  6E36               	movwf	?_GetString^0,c
  4125  0014EA  0E00               	movlw	high _mystring
  4126  0014EC  6E37               	movwf	(?_GetString+1)^0,c
  4127  0014EE  0012               	return		;funcret
  4128  0014F0                     __end_of_GetString:
  4129                           	callstack 0
  4130                           
  4131 ;; *************** function _ClearBuffer *****************
  4132 ;; Defined at:
  4133 ;;		line 55 in file "setting_hardaware/uart.c"
  4134 ;; Parameters:    Size  Location     Type
  4135 ;;		None
  4136 ;; Auto vars:     Size  Location     Type
  4137 ;;  i               2   11[COMRAM] int 
  4138 ;; Return value:  Size  Location     Type
  4139 ;;                  1    wreg      void 
  4140 ;; Registers used:
  4141 ;;		wreg, fsr2l, fsr2h, status,2, status,0
  4142 ;; Tracked objects:
  4143 ;;		On entry : 0/0
  4144 ;;		On exit  : 0/0
  4145 ;;		Unchanged: 0/0
  4146 ;; Data sizes:     COMRAM   BANK0   BANK1   BANK2   BANK3   BANK4   BANK5
  4147 ;;      Params:         0       0       0       0       0       0       0
  4148 ;;      Locals:         2       0       0       0       0       0       0
  4149 ;;      Temps:          0       0       0       0       0       0       0
  4150 ;;      Totals:         2       0       0       0       0       0       0
  4151 ;;Total ram usage:        2 bytes
  4152 ;; Hardware stack levels used:    1
  4153 ;; Hardware stack levels required when called:    4
  4154 ;; This function calls:
  4155 ;;		Nothing
  4156 ;; This function is called by:
  4157 ;;		_main
  4158 ;; This function uses a non-reentrant model
  4159 ;;
  4160                           
  4161                           	psect	text13
  4162  0013BE                     __ptext13:
  4163                           	callstack 0
  4164  0013BE                     _ClearBuffer:
  4165                           	callstack 26
  4166  0013BE                     
  4167                           ;setting_hardaware/uart.c: 56:     for(int i = 0; i < 10 ; i++)
  4168  0013BE  0E00               	movlw	0
  4169  0013C0  6E37               	movwf	(ClearBuffer@i+1)^0,c
  4170  0013C2  0E00               	movlw	0
  4171  0013C4  6E36               	movwf	ClearBuffer@i^0,c
  4172  0013C6                     l1025:
  4173                           
  4174                           ;setting_hardaware/uart.c: 57:         mystring[i] = '\0';
  4175  0013C6  0E17               	movlw	low _mystring
  4176  0013C8  2436               	addwf	ClearBuffer@i^0,w,c
  4177  0013CA  6ED9               	movwf	fsr2l,c
  4178  0013CC  0E00               	movlw	high _mystring
  4179  0013CE  2037               	addwfc	(ClearBuffer@i+1)^0,w,c
  4180  0013D0  6EDA               	movwf	fsr2h,c
  4181  0013D2  0E00               	movlw	0
  4182  0013D4  6EDF               	movwf	indf2,c
  4183  0013D6  4A36               	infsnz	ClearBuffer@i^0,f,c
  4184  0013D8  2A37               	incf	(ClearBuffer@i+1)^0,f,c
  4185  0013DA  BE37               	btfsc	(ClearBuffer@i+1)^0,7,c
  4186  0013DC  EFF9  F009         	goto	u101
  4187  0013E0  5037               	movf	(ClearBuffer@i+1)^0,w,c
  4188  0013E2  E109               	bnz	u100
  4189  0013E4  0E0A               	movlw	10
  4190  0013E6  5C36               	subwf	ClearBuffer@i^0,w,c
  4191  0013E8  A0D8               	btfss	status,0,c
  4192  0013EA  EFF9  F009         	goto	u101
  4193  0013EE  EFFB  F009         	goto	u100
  4194  0013F2                     u101:
  4195  0013F2  EFE3  F009         	goto	l1025
  4196  0013F6                     u100:
  4197  0013F6                     
  4198                           ;setting_hardaware/uart.c: 58:     lenStr = 0;
  4199  0013F6  0E00               	movlw	0
  4200  0013F8  6E02               	movwf	(_lenStr+1)^0,c
  4201  0013FA  0E00               	movlw	0
  4202  0013FC  6E01               	movwf	_lenStr^0,c
  4203  0013FE  0012               	return		;funcret
  4204  001400                     __end_of_ClearBuffer:
  4205                           	callstack 0
  4206                           
  4207 ;; *************** function _ADC_Read *****************
  4208 ;; Defined at:
  4209 ;;		line 13 in file "setting_hardaware/adc.c"
  4210 ;; Parameters:    Size  Location     Type
  4211 ;;  channel         2   11[COMRAM] int 
  4212 ;; Auto vars:     Size  Location     Type
  4213 ;;  digital         2   13[COMRAM] int 
  4214 ;; Return value:  Size  Location     Type
  4215 ;;                  2   11[COMRAM] int 
  4216 ;; Registers used:
  4217 ;;		wreg, status,2
  4218 ;; Tracked objects:
  4219 ;;		On entry : 0/0
  4220 ;;		On exit  : 0/0
  4221 ;;		Unchanged: 0/0
  4222 ;; Data sizes:     COMRAM   BANK0   BANK1   BANK2   BANK3   BANK4   BANK5
  4223 ;;      Params:         2       0       0       0       0       0       0
  4224 ;;      Locals:         2       0       0       0       0       0       0
  4225 ;;      Temps:          0       0       0       0       0       0       0
  4226 ;;      Totals:         4       0       0       0       0       0       0
  4227 ;;Total ram usage:        4 bytes
  4228 ;; Hardware stack levels used:    1
  4229 ;; Hardware stack levels required when called:    4
  4230 ;; This function calls:
  4231 ;;		Nothing
  4232 ;; This function is called by:
  4233 ;;		_main
  4234 ;; This function uses a non-reentrant model
  4235 ;;
  4236                           
  4237                           	psect	text14
  4238  001400                     __ptext14:
  4239                           	callstack 0
  4240  001400                     _ADC_Read:
  4241                           	callstack 26
  4242  001400                     
  4243                           ;setting_hardaware/adc.c: 13: int ADC_Read(int channel);setting_hardaware/adc.c: 14: {;s
      +                          etting_hardaware/adc.c: 15:     int digital;;setting_hardaware/adc.c: 17:     ADCON0bits
      +                          .CHS = 0x00;
  4244  001400  0EC3               	movlw	-61
  4245  001402  16C2               	andwf	194,f,c	;volatile
  4246  001404                     
  4247                           ;setting_hardaware/adc.c: 18:     ADCON0bits.GO = 1;
  4248  001404  82C2               	bsf	194,1,c	;volatile
  4249  001406                     
  4250                           ;setting_hardaware/adc.c: 19:     ADCON0bits.ADON = 1;
  4251  001406  80C2               	bsf	194,0,c	;volatile
  4252  001408                     l123:
  4253  001408  B2C2               	btfsc	194,1,c	;volatile
  4254  00140A  EF09  F00A         	goto	u681
  4255  00140E  EF0B  F00A         	goto	u680
  4256  001412                     u681:
  4257  001412  EF04  F00A         	goto	l123
  4258  001416                     u680:
  4259  001416                     
  4260                           ;setting_hardaware/adc.c: 23:     digital = ADRESH;
  4261  001416  CFC4 F038          	movff	4036,ADC_Read@digital	;volatile
  4262  00141A  6A39               	clrf	(ADC_Read@digital+1)^0,c
  4263                           
  4264                           ;setting_hardaware/adc.c: 24:     return(digital);
  4265  00141C  C038  F036         	movff	ADC_Read@digital,?_ADC_Read
  4266  001420  C039  F037         	movff	ADC_Read@digital+1,?_ADC_Read+1
  4267  001424  0012               	return		;funcret
  4268  001426                     __end_of_ADC_Read:
  4269                           	callstack 0
  4270                           
  4271 ;; *************** function _Lo_ISR *****************
  4272 ;; Defined at:
  4273 ;;		line 75 in file "setting_hardaware/uart.c"
  4274 ;; Parameters:    Size  Location     Type
  4275 ;;		None
  4276 ;; Auto vars:     Size  Location     Type
  4277 ;;		None
  4278 ;; Return value:  Size  Location     Type
  4279 ;;                  1    wreg      void 
  4280 ;; Registers used:
  4281 ;;		wreg, fsr2l, fsr2h, status,2, status,0, cstack
  4282 ;; Tracked objects:
  4283 ;;		On entry : 0/0
  4284 ;;		On exit  : 0/0
  4285 ;;		Unchanged: 0/0
  4286 ;; Data sizes:     COMRAM   BANK0   BANK1   BANK2   BANK3   BANK4   BANK5
  4287 ;;      Params:         0       0       0       0       0       0       0
  4288 ;;      Locals:         0       0       0       0       0       0       0
  4289 ;;      Temps:          5       0       0       0       0       0       0
  4290 ;;      Totals:         5       0       0       0       0       0       0
  4291 ;;Total ram usage:        5 bytes
  4292 ;; Hardware stack levels used:    1
  4293 ;; Hardware stack levels required when called:    3
  4294 ;; This function calls:
  4295 ;;		_MyusartRead
  4296 ;; This function is called by:
  4297 ;;		Interrupt level 1
  4298 ;; This function uses a non-reentrant model
  4299 ;;
  4300                           
  4301                           	psect	intcodelo
  4302  000018                     __pintcodelo:
  4303                           	callstack 0
  4304  000018                     _Lo_ISR:
  4305                           	callstack 25
  4306                           
  4307                           ;incstack = 0
  4308  000018  8044               	bsf	int$flags,0,c	;set compiler interrupt flag (level 1)
  4309  00001A  CFD8 F031          	movff	status,??_Lo_ISR
  4310  00001E  CFE8 F032          	movff	wreg,??_Lo_ISR+1
  4311  000022  CFE0 F033          	movff	bsr,??_Lo_ISR+2
  4312  000026  CFD9 F034          	movff	fsr2l,??_Lo_ISR+3
  4313  00002A  CFDA F035          	movff	fsr2h,??_Lo_ISR+4
  4314  00002E                     
  4315                           ;setting_hardaware/uart.c: 77:     if(RCIF)
  4316  00002E  AA9E               	btfss	3998,5,c	;volatile
  4317  000030  EF1C  F000         	goto	i1u82_21
  4318  000034  EF1E  F000         	goto	i1u82_20
  4319  000038                     i1u82_21:
  4320  000038  EF2A  F000         	goto	i1l85
  4321  00003C                     i1u82_20:
  4322  00003C                     
  4323                           ;setting_hardaware/uart.c: 78:     {;setting_hardaware/uart.c: 79:         if(RCSTAbits.
      +                          OERR)
  4324  00003C  A2AB               	btfss	171,1,c	;volatile
  4325  00003E  EF23  F000         	goto	i1u83_21
  4326  000042  EF25  F000         	goto	i1u83_20
  4327  000046                     i1u83_21:
  4328  000046  EF28  F000         	goto	i1l1759
  4329  00004A                     i1u83_20:
  4330  00004A                     
  4331                           ;setting_hardaware/uart.c: 80:         {;setting_hardaware/uart.c: 81:             CREN 
      +                          = 0;
  4332  00004A  98AB               	bcf	4011,4,c	;volatile
  4333                           
  4334                           ;setting_hardaware/uart.c: 82:             __nop();
  4335  00004C  F000               	nop	
  4336                           
  4337                           ;setting_hardaware/uart.c: 83:             CREN = 1;
  4338  00004E  88AB               	bsf	4011,4,c	;volatile
  4339  000050                     i1l1759:
  4340                           
  4341                           ;setting_hardaware/uart.c: 86:         MyusartRead();
  4342  000050  ECBD  F009         	call	_MyusartRead	;wreg free
  4343  000054                     i1l85:
  4344  000054  C035  FFDA         	movff	??_Lo_ISR+4,fsr2h
  4345  000058  C034  FFD9         	movff	??_Lo_ISR+3,fsr2l
  4346  00005C  C033  FFE0         	movff	??_Lo_ISR+2,bsr
  4347  000060  C032  FFE8         	movff	??_Lo_ISR+1,wreg
  4348  000064  C031  FFD8         	movff	??_Lo_ISR,status
  4349  000068  9044               	bcf	int$flags,0,c	;clear compiler interrupt flag (level 1)
  4350  00006A  0010               	retfie	
  4351  00006C                     __end_of_Lo_ISR:
  4352                           	callstack 0
  4353                           
  4354 ;; *************** function _MyusartRead *****************
  4355 ;; Defined at:
  4356 ;;		line 61 in file "setting_hardaware/uart.c"
  4357 ;; Parameters:    Size  Location     Type
  4358 ;;		None
  4359 ;; Auto vars:     Size  Location     Type
  4360 ;;		None
  4361 ;; Return value:  Size  Location     Type
  4362 ;;                  1    wreg      void 
  4363 ;; Registers used:
  4364 ;;		wreg, fsr2l, fsr2h, status,2, status,0, cstack
  4365 ;; Tracked objects:
  4366 ;;		On entry : 0/0
  4367 ;;		On exit  : 0/0
  4368 ;;		Unchanged: 0/0
  4369 ;; Data sizes:     COMRAM   BANK0   BANK1   BANK2   BANK3   BANK4   BANK5
  4370 ;;      Params:         0       0       0       0       0       0       0
  4371 ;;      Locals:         0       0       0       0       0       0       0
  4372 ;;      Temps:          0       0       0       0       0       0       0
  4373 ;;      Totals:         0       0       0       0       0       0       0
  4374 ;;Total ram usage:        0 bytes
  4375 ;; Hardware stack levels used:    1
  4376 ;; Hardware stack levels required when called:    2
  4377 ;; This function calls:
  4378 ;;		___awmod
  4379 ;;		i1_UART_Write
  4380 ;; This function is called by:
  4381 ;;		_Lo_ISR
  4382 ;; This function uses a non-reentrant model
  4383 ;;
  4384                           
  4385                           	psect	text16
  4386  00137A                     __ptext16:
  4387                           	callstack 0
  4388  00137A                     _MyusartRead:
  4389                           	callstack 25
  4390  00137A                     
  4391                           ;setting_hardaware/uart.c: 63:     mystring[lenStr] = RCREG;
  4392  00137A  0E17               	movlw	low _mystring
  4393  00137C  2401               	addwf	_lenStr^0,w,c
  4394  00137E  6ED9               	movwf	fsr2l,c
  4395  001380  0E00               	movlw	high _mystring
  4396  001382  2002               	addwfc	(_lenStr+1)^0,w,c
  4397  001384  6EDA               	movwf	fsr2h,c
  4398  001386  CFAE FFDF          	movff	4014,indf2	;volatile
  4399  00138A                     
  4400                           ;setting_hardaware/uart.c: 64:     UART_Write(mystring[lenStr]);
  4401  00138A  0E17               	movlw	low _mystring
  4402  00138C  2401               	addwf	_lenStr^0,w,c
  4403  00138E  6ED9               	movwf	fsr2l,c
  4404  001390  0E00               	movlw	high _mystring
  4405  001392  2002               	addwfc	(_lenStr+1)^0,w,c
  4406  001394  6EDA               	movwf	fsr2h,c
  4407  001396  50DF               	movf	indf2,w,c
  4408  001398  EC62  F00A         	call	i1_UART_Write
  4409  00139C                     
  4410                           ;setting_hardaware/uart.c: 65:     lenStr++;
  4411  00139C  4A01               	infsnz	_lenStr^0,f,c
  4412  00139E  2A02               	incf	(_lenStr+1)^0,f,c
  4413  0013A0                     
  4414                           ;setting_hardaware/uart.c: 66:     lenStr %= 10;
  4415  0013A0  C001  F02B         	movff	_lenStr,___awmod@dividend
  4416  0013A4  C002  F02C         	movff	_lenStr+1,___awmod@dividend+1
  4417  0013A8  0E00               	movlw	0
  4418  0013AA  6E2E               	movwf	(___awmod@divisor+1)^0,c
  4419  0013AC  0E0A               	movlw	10
  4420  0013AE  6E2D               	movwf	___awmod@divisor^0,c
  4421  0013B0  EC96  F008         	call	___awmod	;wreg free
  4422  0013B4  C02B  F001         	movff	?___awmod,_lenStr
  4423  0013B8  C02C  F002         	movff	?___awmod+1,_lenStr+1
  4424  0013BC  0012               	return		;funcret
  4425  0013BE                     __end_of_MyusartRead:
  4426                           	callstack 0
  4427                           
  4428 ;; *************** function i1_UART_Write *****************
  4429 ;; Defined at:
  4430 ;;		line 40 in file "setting_hardaware/uart.c"
  4431 ;; Parameters:    Size  Location     Type
  4432 ;;  data            1    wreg     unsigned char 
  4433 ;; Auto vars:     Size  Location     Type
  4434 ;;  data            1    0[COMRAM] unsigned char 
  4435 ;; Return value:  Size  Location     Type
  4436 ;;                  1    wreg      void 
  4437 ;; Registers used:
  4438 ;;		wreg
  4439 ;; Tracked objects:
  4440 ;;		On entry : 0/0
  4441 ;;		On exit  : 0/0
  4442 ;;		Unchanged: 0/0
  4443 ;; Data sizes:     COMRAM   BANK0   BANK1   BANK2   BANK3   BANK4   BANK5
  4444 ;;      Params:         0       0       0       0       0       0       0
  4445 ;;      Locals:         1       0       0       0       0       0       0
  4446 ;;      Temps:          0       0       0       0       0       0       0
  4447 ;;      Totals:         1       0       0       0       0       0       0
  4448 ;;Total ram usage:        1 bytes
  4449 ;; Hardware stack levels used:    1
  4450 ;; Hardware stack levels required when called:    1
  4451 ;; This function calls:
  4452 ;;		Nothing
  4453 ;; This function is called by:
  4454 ;;		_MyusartRead
  4455 ;; This function uses a non-reentrant model
  4456 ;;
  4457                           
  4458                           	psect	text17
  4459  0014C4                     __ptext17:
  4460                           	callstack 0
  4461  0014C4                     i1_UART_Write:
  4462                           	callstack 25
  4463                           
  4464                           ;incstack = 0
  4465                           ;i1UART_Write@data stored from wreg
  4466  0014C4  6E2B               	movwf	i1UART_Write@data^0,c
  4467  0014C6                     i1l58:
  4468  0014C6  A2AC               	btfss	172,1,c	;volatile
  4469  0014C8  EF68  F00A         	goto	i1u66_21
  4470  0014CC  EF6A  F00A         	goto	i1u66_20
  4471  0014D0                     i1u66_21:
  4472  0014D0  EF63  F00A         	goto	i1l58
  4473  0014D4                     i1u66_20:
  4474  0014D4                     
  4475                           ;setting_hardaware/uart.c: 43:     TXREG = data;
  4476  0014D4  C02B  FFAD         	movff	i1UART_Write@data,4013	;volatile
  4477  0014D8  0012               	return		;funcret
  4478  0014DA                     __end_ofi1_UART_Write:
  4479                           	callstack 0
  4480                           
  4481 ;; *************** function ___awmod *****************
  4482 ;; Defined at:
  4483 ;;		line 7 in file "C:\Program Files\Microchip\xc8\v2.30\pic\sources\c99\common\awmod.c"
  4484 ;; Parameters:    Size  Location     Type
  4485 ;;  dividend        2    0[COMRAM] int 
  4486 ;;  divisor         2    2[COMRAM] int 
  4487 ;; Auto vars:     Size  Location     Type
  4488 ;;  sign            1    5[COMRAM] unsigned char 
  4489 ;;  counter         1    4[COMRAM] unsigned char 
  4490 ;; Return value:  Size  Location     Type
  4491 ;;                  2    0[COMRAM] int 
  4492 ;; Registers used:
  4493 ;;		wreg, status,2, status,0
  4494 ;; Tracked objects:
  4495 ;;		On entry : 0/0
  4496 ;;		On exit  : 0/0
  4497 ;;		Unchanged: 0/0
  4498 ;; Data sizes:     COMRAM   BANK0   BANK1   BANK2   BANK3   BANK4   BANK5
  4499 ;;      Params:         4       0       0       0       0       0       0
  4500 ;;      Locals:         2       0       0       0       0       0       0
  4501 ;;      Temps:          0       0       0       0       0       0       0
  4502 ;;      Totals:         6       0       0       0       0       0       0
  4503 ;;Total ram usage:        6 bytes
  4504 ;; Hardware stack levels used:    1
  4505 ;; Hardware stack levels required when called:    1
  4506 ;; This function calls:
  4507 ;;		Nothing
  4508 ;; This function is called by:
  4509 ;;		_MyusartRead
  4510 ;; This function uses a non-reentrant model
  4511 ;;
  4512                           
  4513                           	psect	text18
  4514  00112C                     __ptext18:
  4515                           	callstack 0
  4516  00112C                     ___awmod:
  4517                           	callstack 25
  4518  00112C  0E00               	movlw	0
  4519  00112E  6E30               	movwf	___awmod@sign^0,c
  4520  001130  BE2C               	btfsc	(___awmod@dividend+1)^0,7,c
  4521  001132  EF9F  F008         	goto	i1u60_20
  4522  001136  EF9D  F008         	goto	i1u60_21
  4523  00113A                     i1u60_21:
  4524  00113A  EFA5  F008         	goto	i1l1649
  4525  00113E                     i1u60_20:
  4526  00113E  6C2B               	negf	___awmod@dividend^0,c
  4527  001140  1E2C               	comf	(___awmod@dividend+1)^0,f,c
  4528  001142  B0D8               	btfsc	status,0,c
  4529  001144  2A2C               	incf	(___awmod@dividend+1)^0,f,c
  4530  001146  0E01               	movlw	1
  4531  001148  6E30               	movwf	___awmod@sign^0,c
  4532  00114A                     i1l1649:
  4533  00114A  BE2E               	btfsc	(___awmod@divisor+1)^0,7,c
  4534  00114C  EFAC  F008         	goto	i1u61_20
  4535  001150  EFAA  F008         	goto	i1u61_21
  4536  001154                     i1u61_21:
  4537  001154  EFB0  F008         	goto	i1l1653
  4538  001158                     i1u61_20:
  4539  001158  6C2D               	negf	___awmod@divisor^0,c
  4540  00115A  1E2E               	comf	(___awmod@divisor+1)^0,f,c
  4541  00115C  B0D8               	btfsc	status,0,c
  4542  00115E  2A2E               	incf	(___awmod@divisor+1)^0,f,c
  4543  001160                     i1l1653:
  4544  001160  502D               	movf	___awmod@divisor^0,w,c
  4545  001162  102E               	iorwf	(___awmod@divisor+1)^0,w,c
  4546  001164  B4D8               	btfsc	status,2,c
  4547  001166  EFB7  F008         	goto	i1u62_21
  4548  00116A  EFB9  F008         	goto	i1u62_20
  4549  00116E                     i1u62_21:
  4550  00116E  EFDD  F008         	goto	i1l1669
  4551  001172                     i1u62_20:
  4552  001172  0E01               	movlw	1
  4553  001174  6E2F               	movwf	___awmod@counter^0,c
  4554  001176  EFC1  F008         	goto	i1l1659
  4555  00117A                     i1l1657:
  4556  00117A  90D8               	bcf	status,0,c
  4557  00117C  362D               	rlcf	___awmod@divisor^0,f,c
  4558  00117E  362E               	rlcf	(___awmod@divisor+1)^0,f,c
  4559  001180  2A2F               	incf	___awmod@counter^0,f,c
  4560  001182                     i1l1659:
  4561  001182  AE2E               	btfss	(___awmod@divisor+1)^0,7,c
  4562  001184  EFC6  F008         	goto	i1u63_21
  4563  001188  EFC8  F008         	goto	i1u63_20
  4564  00118C                     i1u63_21:
  4565  00118C  EFBD  F008         	goto	i1l1657
  4566  001190                     i1u63_20:
  4567  001190                     i1l1661:
  4568  001190  502D               	movf	___awmod@divisor^0,w,c
  4569  001192  5C2B               	subwf	___awmod@dividend^0,w,c
  4570  001194  502E               	movf	(___awmod@divisor+1)^0,w,c
  4571  001196  582C               	subwfb	(___awmod@dividend+1)^0,w,c
  4572  001198  A0D8               	btfss	status,0,c
  4573  00119A  EFD1  F008         	goto	i1u64_21
  4574  00119E  EFD3  F008         	goto	i1u64_20
  4575  0011A2                     i1u64_21:
  4576  0011A2  EFD7  F008         	goto	i1l1665
  4577  0011A6                     i1u64_20:
  4578  0011A6  502D               	movf	___awmod@divisor^0,w,c
  4579  0011A8  5E2B               	subwf	___awmod@dividend^0,f,c
  4580  0011AA  502E               	movf	(___awmod@divisor+1)^0,w,c
  4581  0011AC  5A2C               	subwfb	(___awmod@dividend+1)^0,f,c
  4582  0011AE                     i1l1665:
  4583  0011AE  90D8               	bcf	status,0,c
  4584  0011B0  322E               	rrcf	(___awmod@divisor+1)^0,f,c
  4585  0011B2  322D               	rrcf	___awmod@divisor^0,f,c
  4586  0011B4  2E2F               	decfsz	___awmod@counter^0,f,c
  4587  0011B6  EFC8  F008         	goto	i1l1661
  4588  0011BA                     i1l1669:
  4589  0011BA  5030               	movf	___awmod@sign^0,w,c
  4590  0011BC  B4D8               	btfsc	status,2,c
  4591  0011BE  EFE3  F008         	goto	i1u65_21
  4592  0011C2  EFE5  F008         	goto	i1u65_20
  4593  0011C6                     i1u65_21:
  4594  0011C6  EFE9  F008         	goto	i1l1673
  4595  0011CA                     i1u65_20:
  4596  0011CA  6C2B               	negf	___awmod@dividend^0,c
  4597  0011CC  1E2C               	comf	(___awmod@dividend+1)^0,f,c
  4598  0011CE  B0D8               	btfsc	status,0,c
  4599  0011D0  2A2C               	incf	(___awmod@dividend+1)^0,f,c
  4600  0011D2                     i1l1673:
  4601  0011D2  C02B  F02B         	movff	___awmod@dividend,?___awmod
  4602  0011D6  C02C  F02C         	movff	___awmod@dividend+1,?___awmod+1
  4603  0011DA  0012               	return		;funcret
  4604  0011DC                     __end_of___awmod:
  4605                           	callstack 0
  4606                           
  4607 ;; *************** function _Hi_ISR *****************
  4608 ;; Defined at:
  4609 ;;		line 400 in file "main.c"
  4610 ;; Parameters:    Size  Location     Type
  4611 ;;		None
  4612 ;; Auto vars:     Size  Location     Type
  4613 ;;		None
  4614 ;; Return value:  Size  Location     Type
  4615 ;;                  1    wreg      void 
  4616 ;; Registers used:
  4617 ;;		wreg, status,2
  4618 ;; Tracked objects:
  4619 ;;		On entry : 0/0
  4620 ;;		On exit  : 0/0
  4621 ;;		Unchanged: 0/0
  4622 ;; Data sizes:     COMRAM   BANK0   BANK1   BANK2   BANK3   BANK4   BANK5
  4623 ;;      Params:         0       0       0       0       0       0       0
  4624 ;;      Locals:         0       0       0       0       0       0       0
  4625 ;;      Temps:          0       0       0       0       0       0       0
  4626 ;;      Totals:         0       0       0       0       0       0       0
  4627 ;;Total ram usage:        0 bytes
  4628 ;; Hardware stack levels used:    1
  4629 ;; This function calls:
  4630 ;;		Nothing
  4631 ;; This function is called by:
  4632 ;;		Interrupt level 2
  4633 ;; This function uses a non-reentrant model
  4634 ;;
  4635                           
  4636                           	psect	intcode
  4637  000008                     __pintcode:
  4638                           	callstack 0
  4639  000008                     _Hi_ISR:
  4640                           	callstack 25
  4641                           
  4642                           ;incstack = 0
  4643  000008  8244               	bsf	int$flags,1,c	;set compiler interrupt flag (level 2)
  4644  00000A  ED24  F00A         	call	int_func,f	;refresh shadow registers
  4645                           
  4646                           	psect	intcode_body
  4647  001448                     __pintcode_body:
  4648                           	callstack 25
  4649  001448                     int_func:
  4650                           	callstack 25
  4651  001448  0006               	pop		; remove dummy address from shadow register refresh
  4652  00144A                     
  4653                           ;main.c: 402:      if(PIR1bits.CCP1IF == 1) {
  4654  00144A  A49E               	btfss	158,2,c	;volatile
  4655  00144C  EF2A  F00A         	goto	i2u59_41
  4656  001450  EF2C  F00A         	goto	i2u59_40
  4657  001454                     i2u59_41:
  4658  001454  EF32  F00A         	goto	i2l221
  4659  001458                     i2u59_40:
  4660  001458                     
  4661                           ;main.c: 403:         RC2 ^= 1;
  4662  001458  7482               	btg	3970,2,c	;volatile
  4663                           
  4664                           ;main.c: 404:         PIR1bits.CCP1IF = 0;
  4665  00145A  949E               	bcf	158,2,c	;volatile
  4666  00145C                     
  4667                           ;main.c: 405:         TMR3 = 0;
  4668  00145C  0E00               	movlw	0
  4669  00145E  6EB3               	movwf	179,c	;volatile
  4670  001460  0E00               	movlw	0
  4671  001462  6EB2               	movwf	178,c	;volatile
  4672  001464                     i2l221:
  4673  001464  9244               	bcf	int$flags,1,c	;clear compiler interrupt flag (level 2)
  4674  001466  0011               	retfie		f
  4675  001468                     __end_of_Hi_ISR:
  4676                           	callstack 0
  4677                           
  4678                           	psect	rparam
  4679  0000                     
  4680                           	psect	temp
  4681  000044                     btemp:
  4682                           	callstack 0
  4683  000044                     	ds	1
  4684  0000                     int$flags	set	btemp
  4685  0000                     wtemp8	set	btemp+1
  4686  0000                     ttemp5	set	btemp+1
  4687  0000                     ttemp6	set	btemp+4
  4688  0000                     ttemp7	set	btemp+8
  4689                           
  4690                           	psect	idloc
  4691                           
  4692                           ;Config register IDLOC0 @ 0x200000
  4693                           ;	unspecified, using default values
  4694  200000                     	org	2097152
  4695  200000  FF                 	db	255
  4696                           
  4697                           ;Config register IDLOC1 @ 0x200001
  4698                           ;	unspecified, using default values
  4699  200001                     	org	2097153
  4700  200001  FF                 	db	255
  4701                           
  4702                           ;Config register IDLOC2 @ 0x200002
  4703                           ;	unspecified, using default values
  4704  200002                     	org	2097154
  4705  200002  FF                 	db	255
  4706                           
  4707                           ;Config register IDLOC3 @ 0x200003
  4708                           ;	unspecified, using default values
  4709  200003                     	org	2097155
  4710  200003  FF                 	db	255
  4711                           
  4712                           ;Config register IDLOC4 @ 0x200004
  4713                           ;	unspecified, using default values
  4714  200004                     	org	2097156
  4715  200004  FF                 	db	255
  4716                           
  4717                           ;Config register IDLOC5 @ 0x200005
  4718                           ;	unspecified, using default values
  4719  200005                     	org	2097157
  4720  200005  FF                 	db	255
  4721                           
  4722                           ;Config register IDLOC6 @ 0x200006
  4723                           ;	unspecified, using default values
  4724  200006                     	org	2097158
  4725  200006  FF                 	db	255
  4726                           
  4727                           ;Config register IDLOC7 @ 0x200007
  4728                           ;	unspecified, using default values
  4729  200007                     	org	2097159
  4730  200007  FF                 	db	255
  4731                           
  4732                           	psect	config
  4733                           
  4734                           ; Padding undefined space
  4735  300000                     	org	3145728
  4736  300000  FF                 	db	255
  4737                           
  4738                           ;Config register CONFIG1H @ 0x300001
  4739                           ;	Oscillator Selection bits
  4740                           ;	OSC = INTIO67, Internal oscillator block, port function on RA6 and RA7
  4741                           ;	Fail-Safe Clock Monitor Enable bit
  4742                           ;	FCMEN = OFF, Fail-Safe Clock Monitor disabled
  4743                           ;	Internal/External Oscillator Switchover bit
  4744                           ;	IESO = ON, Oscillator Switchover mode enabled
  4745  300001                     	org	3145729
  4746  300001  88                 	db	136
  4747                           
  4748                           ;Config register CONFIG2L @ 0x300002
  4749                           ;	Power-up Timer Enable bit
  4750                           ;	PWRT = OFF, PWRT disabled
  4751                           ;	Brown-out Reset Enable bits
  4752                           ;	BOREN = SBORDIS, Brown-out Reset enabled in hardware only (SBOREN is disabled)
  4753                           ;	Brown Out Reset Voltage bits
  4754                           ;	BORV = 3, Minimum setting
  4755  300002                     	org	3145730
  4756  300002  1F                 	db	31
  4757                           
  4758                           ;Config register CONFIG2H @ 0x300003
  4759                           ;	Watchdog Timer Enable bit
  4760                           ;	WDT = OFF, WDT disabled (control is placed on the SWDTEN bit)
  4761                           ;	Watchdog Timer Postscale Select bits
  4762                           ;	WDTPS = 1, 1:1
  4763  300003                     	org	3145731
  4764  300003  00                 	db	0
  4765                           
  4766                           ; Padding undefined space
  4767  300004                     	org	3145732
  4768  300004  FF                 	db	255
  4769                           
  4770                           ;Config register CONFIG3H @ 0x300005
  4771                           ;	CCP2 MUX bit
  4772                           ;	CCP2MX = PORTC, CCP2 input/output is multiplexed with RC1
  4773                           ;	PORTB A/D Enable bit
  4774                           ;	PBADEN = ON, PORTB<4:0> pins are configured as analog input channels on Reset
  4775                           ;	Low-Power Timer1 Oscillator Enable bit
  4776                           ;	LPT1OSC = OFF, Timer1 configured for higher power operation
  4777                           ;	MCLR Pin Enable bit
  4778                           ;	MCLRE = ON, MCLR pin enabled; RE3 input pin disabled
  4779  300005                     	org	3145733
  4780  300005  83                 	db	131
  4781                           
  4782                           ;Config register CONFIG4L @ 0x300006
  4783                           ;	Stack Full/Underflow Reset Enable bit
  4784                           ;	STVREN = ON, Stack full/underflow will cause Reset
  4785                           ;	Single-Supply ICSP Enable bit
  4786                           ;	LVP = OFF, Single-Supply ICSP disabled
  4787                           ;	Extended Instruction Set Enable bit
  4788                           ;	XINST = OFF, Instruction set extension and Indexed Addressing mode disabled (Legacy mo
      +                          de)
  4789                           ;	Background Debugger Enable bit
  4790                           ;	DEBUG = 0x1, unprogrammed default
  4791  300006                     	org	3145734
  4792  300006  81                 	db	129
  4793                           
  4794                           ; Padding undefined space
  4795  300007                     	org	3145735
  4796  300007  FF                 	db	255
  4797                           
  4798                           ;Config register CONFIG5L @ 0x300008
  4799                           ;	Code Protection bit
  4800                           ;	CP0 = OFF, Block 0 (000800-001FFFh) not code-protected
  4801                           ;	Code Protection bit
  4802                           ;	CP1 = OFF, Block 1 (002000-003FFFh) not code-protected
  4803                           ;	Code Protection bit
  4804                           ;	CP2 = OFF, Block 2 (004000-005FFFh) not code-protected
  4805                           ;	Code Protection bit
  4806                           ;	CP3 = OFF, Block 3 (006000-007FFFh) not code-protected
  4807  300008                     	org	3145736
  4808  300008  0F                 	db	15
  4809                           
  4810                           ;Config register CONFIG5H @ 0x300009
  4811                           ;	Boot Block Code Protection bit
  4812                           ;	CPB = OFF, Boot block (000000-0007FFh) not code-protected
  4813                           ;	Data EEPROM Code Protection bit
  4814                           ;	CPD = OFF, Data EEPROM not code-protected
  4815  300009                     	org	3145737
  4816  300009  C0                 	db	192
  4817                           
  4818                           ;Config register CONFIG6L @ 0x30000A
  4819                           ;	Write Protection bit
  4820                           ;	WRT0 = OFF, Block 0 (000800-001FFFh) not write-protected
  4821                           ;	Write Protection bit
  4822                           ;	WRT1 = OFF, Block 1 (002000-003FFFh) not write-protected
  4823                           ;	Write Protection bit
  4824                           ;	WRT2 = OFF, Block 2 (004000-005FFFh) not write-protected
  4825                           ;	Write Protection bit
  4826                           ;	WRT3 = OFF, Block 3 (006000-007FFFh) not write-protected
  4827  30000A                     	org	3145738
  4828  30000A  0F                 	db	15
  4829                           
  4830                           ;Config register CONFIG6H @ 0x30000B
  4831                           ;	Configuration Register Write Protection bit
  4832                           ;	WRTC = OFF, Configuration registers (300000-3000FFh) not write-protected
  4833                           ;	Boot Block Write Protection bit
  4834                           ;	WRTB = OFF, Boot block (000000-0007FFh) not write-protected
  4835                           ;	Data EEPROM Write Protection bit
  4836                           ;	WRTD = OFF, Data EEPROM not write-protected
  4837  30000B                     	org	3145739
  4838  30000B  E0                 	db	224
  4839                           
  4840                           ;Config register CONFIG7L @ 0x30000C
  4841                           ;	Table Read Protection bit
  4842                           ;	EBTR0 = OFF, Block 0 (000800-001FFFh) not protected from table reads executed in other
      +                           blocks
  4843                           ;	Table Read Protection bit
  4844                           ;	EBTR1 = OFF, Block 1 (002000-003FFFh) not protected from table reads executed in other
      +                           blocks
  4845                           ;	Table Read Protection bit
  4846                           ;	EBTR2 = OFF, Block 2 (004000-005FFFh) not protected from table reads executed in other
      +                           blocks
  4847                           ;	Table Read Protection bit
  4848                           ;	EBTR3 = OFF, Block 3 (006000-007FFFh) not protected from table reads executed in other
      +                           blocks
  4849  30000C                     	org	3145740
  4850  30000C  0F                 	db	15
  4851                           
  4852                           ;Config register CONFIG7H @ 0x30000D
  4853                           ;	Boot Block Table Read Protection bit
  4854                           ;	EBTRB = OFF, Boot block (000000-0007FFh) not protected from table reads executed in ot
      +                          her blocks
  4855  30000D                     	org	3145741
  4856  30000D  40                 	db	64
  4857                           tosu	equ	0xFFF
  4858                           tosh	equ	0xFFE
  4859                           tosl	equ	0xFFD
  4860                           stkptr	equ	0xFFC
  4861                           pclatu	equ	0xFFB
  4862                           pclath	equ	0xFFA
  4863                           pcl	equ	0xFF9
  4864                           tblptru	equ	0xFF8
  4865                           tblptrh	equ	0xFF7
  4866                           tblptrl	equ	0xFF6
  4867                           tablat	equ	0xFF5
  4868                           prodh	equ	0xFF4
  4869                           prodl	equ	0xFF3
  4870                           indf0	equ	0xFEF
  4871                           postinc0	equ	0xFEE
  4872                           postdec0	equ	0xFED
  4873                           preinc0	equ	0xFEC
  4874                           plusw0	equ	0xFEB
  4875                           fsr0h	equ	0xFEA
  4876                           fsr0l	equ	0xFE9
  4877                           wreg	equ	0xFE8
  4878                           indf1	equ	0xFE7
  4879                           postinc1	equ	0xFE6
  4880                           postdec1	equ	0xFE5
  4881                           preinc1	equ	0xFE4
  4882                           plusw1	equ	0xFE3
  4883                           fsr1h	equ	0xFE2
  4884                           fsr1l	equ	0xFE1
  4885                           bsr	equ	0xFE0
  4886                           indf2	equ	0xFDF
  4887                           postinc2	equ	0xFDE
  4888                           postdec2	equ	0xFDD
  4889                           preinc2	equ	0xFDC
  4890                           plusw2	equ	0xFDB
  4891                           fsr2h	equ	0xFDA
  4892                           fsr2l	equ	0xFD9
  4893                           status	equ	0xFD8

Data Sizes:
    Strings     358
    Constant    0
    Data        0
    BSS         42
    Persistent  0
    Stack       0

Auto Spaces:
    Space          Size  Autos    Used
    COMRAM          126     25      67
    BANK0           128      0       0
    BANK1           256      0       0
    BANK2           256      0       0
    BANK3           256      0       0
    BANK4           256      0       0
    BANK5           244      0       0

Pointer List with Targets:

    strncpy@s	PTR const unsigned char  size(2) Largest target is 20
		 -> mystring(COMRAM[20]), 

    strncpy@d	PTR unsigned char  size(2) Largest target is 20
		 -> str(COMRAM[20]), 

    strncpy@cp	PTR unsigned char  size(2) Largest target is 20
		 -> str(COMRAM[20]), 

    strcmp@r	PTR const unsigned char  size(2) Largest target is 6
		 -> STR_1(CODE[6]), 

    strcmp@l	PTR const unsigned char  size(2) Largest target is 20
		 -> str(COMRAM[20]), 

    sp__strncpy	PTR unsigned char  size(2) Largest target is 20
		 -> str(COMRAM[20]), 

    UART_Write_Text@text	PTR unsigned char  size(2) Largest target is 85
		 -> STR_13(CODE[35]), STR_12(CODE[85]), STR_11(CODE[20]), STR_10(CODE[11]), 
		 -> STR_9(CODE[28]), STR_8(CODE[36]), STR_7(CODE[21]), STR_6(CODE[26]), 
		 -> STR_5(CODE[60]), STR_4(CODE[10]), STR_3(CODE[10]), STR_2(CODE[20]), 

    sp__GetString	PTR unsigned char  size(2) Largest target is 20
		 -> mystring(COMRAM[20]), 


Critical Paths under _main in COMRAM

    _main->_strncpy
    _strncpy->_GetString
    _UART_Write_Text->_UART_Write

Critical Paths under _Lo_ISR in COMRAM

    _MyusartRead->___awmod

Critical Paths under _Hi_ISR in COMRAM

    None.

Critical Paths under _main in BANK0

    None.

Critical Paths under _Lo_ISR in BANK0

    None.

Critical Paths under _Hi_ISR in BANK0

    None.

Critical Paths under _main in BANK1

    None.

Critical Paths under _Lo_ISR in BANK1

    None.

Critical Paths under _Hi_ISR in BANK1

    None.

Critical Paths under _main in BANK2

    None.

Critical Paths under _Lo_ISR in BANK2

    None.

Critical Paths under _Hi_ISR in BANK2

    None.

Critical Paths under _main in BANK3

    None.

Critical Paths under _Lo_ISR in BANK3

    None.

Critical Paths under _Hi_ISR in BANK3

    None.

Critical Paths under _main in BANK4

    None.

Critical Paths under _Lo_ISR in BANK4

    None.

Critical Paths under _Hi_ISR in BANK4

    None.

Critical Paths under _main in BANK5

    None.

Critical Paths under _Lo_ISR in BANK5

    None.

Critical Paths under _Hi_ISR in BANK5

    None.

Call Graph Tables:

 ---------------------------------------------------------------------------------
 (Depth) Function   	        Calls       Base Space   Used Autos Params    Refs
 ---------------------------------------------------------------------------------
 (0) _main                                                 4     4      0   37777
                                             21 COMRAM     4     4      0
                           _ADC_Read
                        _ClearBuffer
                          _GetString
                  _SYSTEM_Initialize
                    _UART_Write_Text
                            _setBits
                             _strcmp
                            _strncpy
 ---------------------------------------------------------------------------------
 (1) _strncpy                                              8     2      6     369
                                             13 COMRAM     8     2      6
                          _GetString (ARG)
 ---------------------------------------------------------------------------------
 (1) _strcmp                                               5     1      4     264
                                             11 COMRAM     5     1      4
 ---------------------------------------------------------------------------------
 (1) _setBits                                              8     1      7   35288
                                             11 COMRAM     8     1      7
 ---------------------------------------------------------------------------------
 (1) _UART_Write_Text                                      6     4      2    1017
                                             12 COMRAM     6     4      2
                         _UART_Write
 ---------------------------------------------------------------------------------
 (2) _UART_Write                                           1     1      0      15
                                             11 COMRAM     1     1      0
 ---------------------------------------------------------------------------------
 (1) _SYSTEM_Initialize                                    0     0      0       0
                     _ADC_Initialize
                    _CCP1_Initialize
               _INTERRUPT_Initialize
              _OSCILLATOR_Initialize
                    _UART_Initialize
 ---------------------------------------------------------------------------------
 (2) _UART_Initialize                                      0     0      0       0
 ---------------------------------------------------------------------------------
 (2) _OSCILLATOR_Initialize                                0     0      0       0
 ---------------------------------------------------------------------------------
 (2) _INTERRUPT_Initialize                                 0     0      0       0
 ---------------------------------------------------------------------------------
 (2) _CCP1_Initialize                                      0     0      0       0
 ---------------------------------------------------------------------------------
 (2) _ADC_Initialize                                       0     0      0       0
 ---------------------------------------------------------------------------------
 (1) _GetString                                            2     0      2       0
                                             11 COMRAM     2     0      2
 ---------------------------------------------------------------------------------
 (1) _ClearBuffer                                          2     2      0      45
                                             11 COMRAM     2     2      0
 ---------------------------------------------------------------------------------
 (1) _ADC_Read                                             4     2      2      99
                                             11 COMRAM     4     2      2
 ---------------------------------------------------------------------------------
 Estimated maximum stack depth 2
 ---------------------------------------------------------------------------------
 (Depth) Function   	        Calls       Base Space   Used Autos Params    Refs
 ---------------------------------------------------------------------------------
 (3) _Lo_ISR                                               5     5      0     470
                                              6 COMRAM     5     5      0
                        _MyusartRead
 ---------------------------------------------------------------------------------
 (4) _MyusartRead                                          0     0      0     470
                            ___awmod
                       i1_UART_Write
 ---------------------------------------------------------------------------------
 (5) i1_UART_Write                                         1     1      0      22
                                              0 COMRAM     1     1      0
 ---------------------------------------------------------------------------------
 (5) ___awmod                                              6     2      4     448
                                              0 COMRAM     6     2      4
 ---------------------------------------------------------------------------------
 Estimated maximum stack depth 5
 ---------------------------------------------------------------------------------
 (Depth) Function   	        Calls       Base Space   Used Autos Params    Refs
 ---------------------------------------------------------------------------------
 (6) _Hi_ISR                                               0     0      0       0
 ---------------------------------------------------------------------------------
 Estimated maximum stack depth 6
 ---------------------------------------------------------------------------------

 Call Graph Graphs:

 _main (ROOT)
   _ADC_Read
   _ClearBuffer
   _GetString
   _SYSTEM_Initialize
     _ADC_Initialize
     _CCP1_Initialize
     _INTERRUPT_Initialize
     _OSCILLATOR_Initialize
     _UART_Initialize
   _UART_Write_Text
     _UART_Write
   _setBits
   _strcmp
   _strncpy
     _GetString (ARG)

 _Lo_ISR (ROOT)
   _MyusartRead
     ___awmod
     i1_UART_Write

 _Hi_ISR (ROOT)

 Address spaces:
Name               Size   Autos  Total    Cost      Usage
BIGRAM             5F3      0       0      16        0.0%
EEDATA             100      0       0       0        0.0%
BITBANK4           100      0       0      11        0.0%
BANK4              100      0       0      12        0.0%
BITBANK3           100      0       0       9        0.0%
BANK3              100      0       0      10        0.0%
BITBANK2           100      0       0       7        0.0%
BANK2              100      0       0       8        0.0%
BITBANK1           100      0       0       5        0.0%
BANK1              100      0       0       6        0.0%
BITBANK5            F4      0       0      15        0.0%
BANK5               F4      0       0      13        0.0%
BITBANK0            80      0       0       3        0.0%
BANK0               80      0       0       4        0.0%
BITCOMRAM           7E      0       0       0        0.0%
COMRAM              7E     19      43       1       53.2%
BITSFR_5             0      0       0     200        0.0%
SFR_5                0      0       0     200        0.0%
BITSFR_4             0      0       0     200        0.0%
SFR_4                0      0       0     200        0.0%
BITSFR_3             0      0       0     200        0.0%
SFR_3                0      0       0     200        0.0%
BITSFR_2             0      0       0     200        0.0%
SFR_2                0      0       0     200        0.0%
BITSFR_1             0      0       0     200        0.0%
SFR_1                0      0       0     200        0.0%
BITSFR               0      0       0     200        0.0%
SFR                  0      0       0     200        0.0%
STACK                0      0       0       2        0.0%
NULL                 0      0       0       0        0.0%
ABS                  0      0      43      14        0.0%
DATA                 0      0      43      17        0.0%
CODE                 0      0       0       0        0.0%


Microchip Technology PIC18 Macro Assembler V2.30 build 20200825195618 
Symbol Table                                                                                   Thu Jan 14 09:35:03 2021

                            l22 14F6                              l19 14AC                              l61 1496  
                            l70 1324                              l55 1446                              l64 14EE  
                            l58 1484                              l75 13FE                              l92 14FE  
                            u10 1492                              u11 148E                              bsr 000FE0  
       __end_of_CCP1_Initialize 14E6                             l103 14E4                             l120 14C2  
                           l123 1408                             l204 1124                             l125 1416  
                           l126 1424                             l175 1378                             l903 12CE  
                           l921 1430                             l913 125E                             l915 14F0  
                           l931 143C                             l923 1434                             l941 14DA  
                           l917 14F8                             l933 143E                             l925 1436  
                           l951 14B0                             l943 14DC                             l935 1440  
                           l927 1438                             l919 1426                             l953 14B4  
                           l945 14E0                             l937 1442                             l929 143A  
                           l947 14E2                             l939 1444                             l955 1484  
                           l949 14AE                             l957 1492                             l999 1498  
                           _RC2 007C12                             u100 13F6                             u101 13F2  
                           u800 1294                             u705 133A                             u801 1290  
                           u706 133C                             u810 12AC                             u715 1344  
                           u811 12A8                             u716 1346                             u900 04B8  
                           u725 134E                             u901 04B4                             u670 1324  
                           u726 1350                             u910 04CE                             u671 1320  
                           u735 1358                             u911 04CA                             u680 1416  
                           u736 135A                             u920 04E0                             u840 00FA  
                           u681 1412                             u745 1362                             u921 04DC  
                           u841 00F6                             u746 1364                             u770 121A  
                           u930 0660                             u850 0138                             u755 136C  
                           u771 1216                             u931 065C                             u851 0134  
                           u756 136E                             u780 1230                             u940 0676  
                           u860 014A                             u765 1376                             u781 122C  
                           u941 0672                             u861 0146                             u766 1378  
                           u790 125E                             u950 0688                             u870 0304  
                           u695 1330                             u791 125A                             u951 0684  
                           u871 0300                             u696 1332                             u960 0772  
                           u880 031A                             u961 076E                             u881 0316  
                           u970 0788                             u890 032C                             u971 0784  
                           u891 0328                             u980 079A                             u981 0796  
                           u990 091A                             u991 0916                             _str 0003  
                  ___awmod@sign 0030                             wreg 000FE8                            l1001 14A0  
                          l1003 14A4                            l1005 14A8                            l1031 13F6  
                          l1025 13C6                            l2001 07E0                            l1027 13D6  
                          l1019 13BE                            l2011 0838                            l2003 07E4  
                          l1029 13DA                            l2101 0B24                            l2021 087A  
                          l2013 0844                            l2005 0806                            l2111 0B6A  
                          l2103 0B30                            l2031 08DA                            l2023 089C  
                          l2015 0848                            l2007 0812                            l2201 0E4A  
                          l2121 0BC2                            l2113 0B6E                            l2105 0B38  
                          l2041 0930                            l2033 08DE                            l2025 08A8  
                          l2017 086A                            l2009 0816                            l2211 0E8C  
                          l2203 0E56                            l2131 0C04                            l2123 0BCE  
                          l2115 0B90                            l2107 0B3C                            l2051 097C  
                          l2043 0942                            l2027 08AC                            l2019 0876  
                          l2213 0EAE                            l2205 0E5A                            l2221 0EE4  
                          l2141 0C64                            l2133 0C26                            l2125 0BD2  
                          l2117 0B9C                            l2109 0B5E                            l2061 09BE  
                          l2053 0988                            l2045 094E                            l2029 08CE  
                          l2037 0904                            l2231 0F36                            l2223 0EFA  
                          l2215 0EBA                            l2207 0E7C                            l2151 0CBA  
                          l2143 0C68                            l2135 0C32                            l2127 0BF4  
                          l2119 0BA0                            l2071 0A1E                            l2063 09E0  
                          l2055 098C                            l2047 0956                            l2039 091A  
                          l2241 0F8E                            l2233 0F3A                            l2225 0F10  
                          l2217 0EBE                            l2209 0E88                            l2161 0D06  
                          l2153 0CCC                            l2137 0C36                            l2129 0C00  
                          l2081 0A76                            l2073 0A22                            l2065 09EC  
                          l2057 09AE                            l2049 095A                            l2251 0FD0  
                          l2243 0F9A                            l2235 0F5C                            l2227 0F22  
                          l2171 0D48                            l2163 0D12                            l2155 0CD8  
                          l2139 0C58                            l2147 0C8E                            l2091 0AB8  
                          l2083 0A82                            l2075 0A44                            l2067 09F0  
                          l2059 09BA                            l2261 102A                            l2245 0F9E  
                          l2237 0F68                            l2229 0F2E                            l2173 0D6A  
                          l2165 0D16                            l2157 0CE0                            l2149 0CA4  
                          l2181 0DA0                            l2093 0ADA                            l2085 0A86  
                          l2077 0A50                            l2069 0A12                            l1703 1400  
                          l1711 1332                            l2271 1068                            l2263 1032  
                          l2247 0FC0                            l2239 0F6C                            l2255 0FF6  
                          l2191 0DF2                            l2183 0DB6                            l2175 0D76  
                          l2167 0D38                            l2159 0CE4                            l2087 0AA8  
                          l2079 0A54                            l2095 0AE6                            l1705 1404  
                          l1721 1364                            l1713 133C                            l2281 10C8  
                          l2273 108A                            l2265 1036                            l2257 100C  
                          l2249 0FCC                            l2193 0DF6                            l2185 0DCC  
                          l2177 0D7A                            l2169 0D44                            l2097 0AFC  
                          l2089 0AB4                            l1801 0162                            l1707 1406  
                          l1723 136E                            l1715 1346                            l2283 10CC  
                          l2275 1096                            l2267 1058                            l2259 101E  
                          l2195 0E18                            l2187 0DDE                            l2099 0B12  
                          l1811 01C2                            l1803 0184                            l1717 1350  
                          l1709 1328                            l1741 1260                            l1733 121E  
                          l1725 11DC                            l2285 10EE                            l2277 109A  
                          l2269 1064                            l2197 0E24                            l2189 0DEA  
                          l1901 04B8                            l1821 021A                            l1813 01C6  
                          l1805 0190                            l1719 135A                            l1743 1264  
                          l1735 1234                            l1727 11E8                            l2287 10FA  
                          l2279 10BC                            l2199 0E28                            l1911 04F8  
                          l1903 04CE                            l1831 025C                            l1823 0226  
                          l1815 01E8                            l1807 0194                            l1681 14E6  
                          l1745 126C                            l1737 1240                            l1729 11EE  
                          l2289 10FE                            l1921 0558                            l1913 051A  
                          l1905 04E0                            l1841 02BC                            l1833 027E  
                          l1825 022A                            l1817 01F4                            l1809 01B6  
                          l1691 12FC                            l1747 1294                            l1739 1244  
                          l1931 05B0                            l1923 055C                            l1915 0526  
                          l1907 04EC                            l1851 031A                            l1843 02C0  
                          l1835 028A                            l1827 024C                            l1819 01F8  
                          l1771 00A2                            l1763 0070                            l1685 12D0  
                          l1749 12AC                            l1941 05F2                            l1933 05BC  
                          l1925 057E                            l1917 052A                            l1909 04F4  
                          l1861 0366                            l1853 032C                            l1845 02E2  
                          l1837 028E                            l1829 0258                            l1781 00D4  
                          l1773 00A4                            l1765 0084                            l1687 12DC  
                          l1943 0614                            l1935 05C0                            l1927 058A  
                          l1919 054C                            l1951 064A                            l1871 03A8  
                          l1863 0372                            l1855 0338                            l1839 02B0  
                          l1847 02EE                            l1791 0122                            l1783 00FA  
                          l1775 00A8                            l1767 0086                            l1689 12F8  
                          l1961 069C                            l1953 0660                            l1945 0620  
                          l1937 05E2                            l1929 058E                            l1881 0408  
                          l1873 03CA                            l1865 0376                            l1857 0340  
                          l1849 0304                            l1793 0138                            l1785 00FE  
                          l1777 00B0                            l1769 00A0                            l1971 06F4  
                          l1963 06A0                            l1955 0676                            l1947 0624  
                          l1939 05EE                            l1891 0460                            l1883 040C  
                          l1875 03D6                            l1867 0398                            l1859 0344  
                          l1795 014A                            l1787 010A                            l1779 00D0  
                          l1981 0736                            l1973 0700                            l1965 06C2  
                          l1957 0688                            l1893 046C                            l1885 042E  
                          l1877 03DA                            l1869 03A4                            l1797 0156  
                          l1789 010E                            l1991 079A                            l1975 0704  
                          l1967 06CE                            l1959 0694                            l1895 0470  
                          l1887 043A                            l1879 03FC                            l1799 015E  
                          l1993 07A6                            l1977 0726                            l1969 06D2  
                          l1985 075C                            l1897 0492                            l1889 043E  
                          l1995 07AE                            l1987 0772                            l1979 0732  
                          l1899 04A2                            l1997 07B2                            l1989 0788  
                          l1999 07D4                            _ADFM 007E07                            STR_1 7DB9  
                          STR_2 7D90                            STR_3 7DAF                            STR_4 7DAF  
                          STR_5 7CAE                            STR_6 7D4D                            STR_7 7D67  
                          STR_8 7CEA                            STR_9 7D31                            u1000 0930  
                          _CREN 007D5C                            u1001 092C                            u1010 0942  
                          u1011 093E                            u1100 0DDE                            u1020 0AFC  
                          u1101 0DDA                            u1021 0AF8                            u1110 0EFA  
                          u1030 0B12                            u1111 0EF6                            u1031 0B0E  
                          u1120 0F10                            u1040 0B24                            u1121 0F0C  
                          u1041 0B20                            u1130 0F22                            u1050 0CA4  
                          u1131 0F1E                            u1051 0CA0                            u1140 100C  
                          u1060 0CBA                            u1141 1008                            u1061 0CB6  
                          u1150 101E                            u1070 0CCC                            u1151 101A  
                          u1071 0CC8                            u1207 024E                            u1080 0DB6  
                          u1081 0DB2                            u1217 0280                            u1090 0DCC  
                          u1091 0DC8                            u1307 0494                            u1227 02B2  
                          u1317 051C                            u1237 02E4                            u1407 07D6  
                          u1327 054E                            u1247 0368                            u1167 0186  
                          u1417 0808                            u1337 0580                            u1257 039A  
                          u1177 01B8                            u1507 0A46                            u1427 083A  
                          u1347 05B2                            u1267 03CC                            u1187 01EA  
                          u1517 0A78                            u1437 086C                            u1357 05E4  
                          u1277 03FE                            u1197 021C                            u1607 0D08  
                          u1527 0AAA                            u1447 089E                            u1367 0616  
                          u1287 0430                            u1617 0D3A                            u1537 0ADC  
                          u1457 08D0                            u1377 06C4                            u1297 0462  
                          u1707 105A                            u1627 0D6C                            u1547 0B60  
                          u1467 097E                            u1387 06F6                            u1717 108C  
                          u1637 0E1A                            u1557 0B92                            u1477 09B0  
                          u1397 0728                            u1727 10BE                            u1647 0E4C  
                          u1567 0BC4                            u1487 09E2                            u1737 10F0  
                          u1657 0E7E                            u1577 0BF6                            u1497 0A14  
                          u1667 0EB0                            u1587 0C28                            u1677 0F5E  
                          u1597 0C5A                            u1687 0F90                            u1697 0FC2  
                          _RCIF 007CF5                            i1l61 14D8                            i1l58 14C6  
                          i1l85 0054                            i1l78 13BC                            _TMR3 000FB2  
                          _main 0070                            fsr1h 000FE2                            fsr2h 000FDA  
                          indf1 000FE7                            indf2 000FDF                            fsr1l 000FE1  
                          fsr2l 000FD9                            btemp 0044                __end_of_ADC_Read 1426  
                          start 006C                    ___param_bank 000000         __end_of_UART_Write_Text 1326  
              ?_UART_Initialize 002B  __size_of_OSCILLATOR_Initialize 0008   __end_of_OSCILLATOR_Initialize 14F8  
                         ?_main 002B                           STR_10 7DA4                           STR_11 7D7C  
                         STR_12 7C59                           STR_13 7D0E                 __end_of___awmod 11DC  
                         _IRCF0 007E9C                           _IRCF1 007E9D                           _IRCF2 007E9E  
                         i2l221 1464                           i1l468 11DA                           _RCREG 000FAE  
                         _SPBRG 000FAF                           _PORTC 000F82                           _PORTD 000F83  
                         _TRISA 000F92                           _TRISC 000F94                           _TRISD 000F95  
                         _TRISE 000F96                           _TXREG 000FAD                     ?_UART_Write 002B  
               __end_of_setBits 137A                           main@x 0042                     _ClearBuffer 13BE  
                         tablat 000FF5                           ttemp5 0045                           ttemp6 0048  
                         ttemp7 004C                           status 000FD8                           wtemp8 0045  
               __end_of_strncpy 1260                 __initialization 1468                    __end_of_main 112C  
                        ??_main 0040                ?_CCP1_Initialize 002B                   __activetblptr 000002  
            __size_of_GetString 000A                          _ADCON1 000FC1                          _ADRESH 000FC4  
                        _ADRESL 000FC3                          i1l1641 112C                          i1l1651 1158  
                        i1l1643 1130                          i1l1661 1190                          i1l1653 1160  
                        i1l1645 113E                          i1l1671 11CA                          i1l1663 11A6  
                        i1l1655 1172                          i1l1647 1146                          i1l1673 11D2  
                        i1l1665 11AE                          i1l1657 117A                          i1l1649 114A  
                        i1l1753 002E                          i1l1667 11B4                          i1l1659 1182  
                        i1l1755 003C                          i1l1669 11BA                          i1l1677 14C6  
                        i1l1693 137A                          i1l1757 004A                          i1l1679 14D4  
                        i1l1695 138A                          i1l1759 0050                          i1l1697 139C  
                        i1l1699 13A0                          i2l1633 144A                          i2l1635 1458  
                        i2l1637 145C                          _Hi_ISR 0008                          _Lo_ISR 0018  
           __size_of_UART_Write 0016                       ??___awmod 002F                ?_UART_Write_Text 0037  
               ADC_Read@channel 0036                          _lenStr 0001                 ADC_Read@digital 0038  
                        clear_0 146E                 ___awmod@divisor 002D                 ___awmod@counter 002F  
                        _strcmp 1260                       ?_ADC_Read 0036                       ??_setBits 003D  
                  __mediumconst 7C58                          tblptrh 000FF7                          tblptrl 000FF6  
                        tblptru 000FF8                       ??_strncpy 003E   __size_of_INTERRUPT_Initialize 0008  
             _SYSTEM_Initialize 1498                      __accesstop 0080         __end_of__initialization 1474  
            ?_SYSTEM_Initialize 002B                   ___rparam_used 000001               __end_of_GetString 14F0  
                 ?i1_UART_Write 002B                  __pcstackCOMRAM 002B             ??_SYSTEM_Initialize 0036  
                    ??_ADC_Read 0038                   ??_MyusartRead 0031       __end_of_SYSTEM_Initialize 14AE  
                       ?_Hi_ISR 002B                         ?_Lo_ISR 002B                  ??i1_UART_Write 002B  
                       _CCP1CON 000FBD         __size_of_ADC_Initialize 0016                         ?_strcmp 0036  
                  ??_UART_Write 0036                         i1u60_20 113E                         i1u60_21 113A  
                       i1u61_20 1158                         i1u61_21 1154                         i1u62_20 1172  
                       i1u62_21 116E                         i1u63_20 1190                         i1u63_21 118C  
                       i1u64_20 11A6                         i1u64_21 11A2                         i1u65_20 11CA  
                       i1u65_21 11C6                         i1u66_20 14D4                         i1u82_20 003C  
                       i1u66_21 14D0                         i1u82_21 0038                         i1u83_20 004A  
                       i1u83_21 0046                         i2u59_40 1458                         i2u59_41 1454  
                  ?_ClearBuffer 002B             __end_of_MyusartRead 13BE                 __size_of_Hi_ISR 1460  
               __size_of_Lo_ISR 0054                         __Hparam 0000                         __Lparam 0000  
                       ___awmod 112C              __end_of_UART_Write 1498                         __pcinit 1468  
                       __ramtop 0600                         __ptext0 0070                         __ptext1 11DC  
                       __ptext2 1260                         __ptext3 1326                         __ptext4 12D0  
                       __ptext5 1482                         __ptext6 1498                         __ptext7 1426  
                       __ptext8 14F0                         __ptext9 14F8                 __size_of_strcmp 0070  
         _OSCILLATOR_Initialize 14F0                ___awmod@dividend 002B                         _setBits 1326  
      __size_of_UART_Initialize 0022      __size_of_SYSTEM_Initialize 0016                  __pintcode_body 1448  
                       _strncpy 11DC            end_of_initialization 1474                   __Lmediumconst 7C58  
                       int_func 1448                       _RCSTAbits 000FAB                         postinc0 000FEE  
                       strcmp@l 0036                         strcmp@r 0038                       _PORTCbits 000F82  
                     _PORTEbits 000F84                  UART_Write@data 0036                       _TRISCbits 000F94  
                   _MyusartRead 137A            __end_ofi1_UART_Write 14DA               __size_of_ADC_Read 0026  
      __size_of_CCP1_Initialize 000C                       _TXSTAbits 000FAC                  __end_of_Hi_ISR 1468  
                __end_of_Lo_ISR 006C    __end_of_INTERRUPT_Initialize 1500                       _GetString 14E6  
                   _BAUDCONbits 000FB8                  _ADC_Initialize 14AE          ?_OSCILLATOR_Initialize 002B  
      __size_of_UART_Write_Text 0056                  __end_of_strcmp 12D0             start_initialization 1468  
                  ClearBuffer@i 0036               ??_UART_Initialize 0036            __size_of_ClearBuffer 0042  
                      ??_Hi_ISR 002B                        ??_Lo_ISR 0031          __end_of_ADC_Initialize 14C4  
                    ?_GetString 0036                        ??_strcmp 003A                     __pbssCOMRAM 0001  
             ??_CCP1_Initialize 0036                       __pintcode 0008                   __pmediumconst 7C58  
                      ?___awmod 002B                 ?_ADC_Initialize 002B                     __pintcodelo 0018  
         __size_ofi1_UART_Write 0016                        _ADC_Read 1400                        ?_setBits 0036  
                      ?_strncpy 0038               ??_UART_Write_Text 0039            _INTERRUPT_Initialize 14F8  
                      _IPR1bits 000F9F                        _PIE1bits 000F9D                        _PIR1bits 000F9E  
                  i1_UART_Write 14C4                        _RCONbits 000FD0                     ??_GetString 0038  
                    _ADCON0bits 000FC2                      _ADCON1bits 000FC1                      _ADCON2bits 000FC0  
                     main@check 0040                    ?_MyusartRead 002B           ?_INTERRUPT_Initialize 002B  
              i1UART_Write@data 002B                        __Hrparam 0000                        __Lrparam 0000  
       ??_OSCILLATOR_Initialize 0036                __size_of___awmod 00B0                 _UART_Initialize 1426  
              __size_of_setBits 0054                        __ptext10 14DA                        __ptext11 14AE  
                      __ptext12 14E6                        __ptext13 13BE                        __ptext14 1400  
                      __ptext16 137A                        __ptext17 14C4                        __ptext18 112C  
              __size_of_strncpy 0084             UART_Write_Text@text 0037                   __size_of_main 10BC  
                      int$flags 0044                        _mystring 0017                      _INTCONbits 000FF2  
               _CCP1_Initialize 14DA          ??_INTERRUPT_Initialize 0036                   ??_ClearBuffer 0036  
                      intlevel1 0000                        intlevel2 0000                        setBits@a 003D  
                      setBits@b 0036                        setBits@c 0037                        setBits@d 0038  
                      setBits@e 0039                        setBits@f 003A                        setBits@g 003B  
                      setBits@h 003C                ??_ADC_Initialize 0036                       strncpy@cp 003E  
       __end_of_UART_Initialize 1448                 _UART_Write_Text 12D0                        strncpy@d 0038  
                      strncpy@n 003C                        strncpy@s 003A                      _UART_Write 1482  
          __size_of_MyusartRead 0044                UART_Write_Text@i 003B             __end_of_ClearBuffer 1400  
